

Microchip MPLAB XC8 Assembler V2.30 build 20200825195618 
                                                                                               Tue Jun 07 20:03:50 2022

Microchip MPLAB XC8 C Compiler v2.30 (Free license) build 20200825195618 Og1 
     1                           	processor	18F8722
     2                           	fnconf	rparam,??,?,0
     3                           	pagewidth 120
     4                           	opt	flic
     5                           	psect	idataCOMRAM,global,class=CODE,delta=1,noexec
     6                           	psect	idataBANK0,global,class=CODE,delta=1,noexec
     7                           	psect	idataBANK1,global,class=CODE,delta=1,noexec
     8                           	psect	cinit,global,reloc=2,class=CODE,delta=1
     9                           	psect	bssCOMRAM,global,class=COMRAM,space=1,delta=1,lowdata,noexec
    10                           	psect	dataCOMRAM,global,class=COMRAM,space=1,delta=1,lowdata,noexec
    11                           	psect	bssBANK0,global,class=BANK0,space=1,delta=1,lowdata,noexec
    12                           	psect	dataBANK0,global,class=BANK0,space=1,delta=1,lowdata,noexec
    13                           	psect	dataBANK1,global,class=BANK1,space=1,delta=1,lowdata,noexec
    14                           	psect	cstackBANK1,global,class=BANK1,space=1,delta=1,lowdata,noexec
    15                           	psect	cstackCOMRAM,global,class=COMRAM,space=1,delta=1,lowdata,noexec
    16                           	psect	text0,global,reloc=2,class=CODE,delta=1
    17                           	psect	text1,global,reloc=2,class=CODE,delta=1
    18                           	psect	text2,global,reloc=2,class=CODE,delta=1
    19                           	psect	text3,global,reloc=2,class=CODE,delta=1
    20                           	psect	text4,global,reloc=2,class=CODE,delta=1
    21                           	psect	text5,global,reloc=2,class=CODE,delta=1
    22                           	psect	text6,global,reloc=2,class=CODE,delta=1
    23                           	psect	text7,global,reloc=2,class=CODE,delta=1
    24                           	psect	text8,global,reloc=2,class=CODE,delta=1
    25                           	psect	text9,global,reloc=2,class=CODE,delta=1
    26                           	psect	text10,global,reloc=2,class=CODE,delta=1
    27                           	psect	text11,global,reloc=2,class=CODE,delta=1
    28                           	psect	text12,global,reloc=2,class=CODE,delta=1
    29                           	psect	text13,global,reloc=2,class=CODE,delta=1
    30                           	psect	text14,global,reloc=2,class=CODE,delta=1
    31                           	psect	text15,global,reloc=2,class=CODE,delta=1
    32                           	psect	text16,global,reloc=2,class=CODE,delta=1
    33                           	psect	text17,global,reloc=2,class=CODE,delta=1
    34                           	psect	text18,global,reloc=2,class=CODE,delta=1
    35                           	psect	text19,global,reloc=2,class=CODE,delta=1
    36                           	psect	text20,global,reloc=2,class=CODE,delta=1
    37                           	psect	text21,global,reloc=2,class=CODE,delta=1
    38                           	psect	text22,global,reloc=2,class=CODE,delta=1
    39                           	psect	text23,global,reloc=2,class=CODE,delta=1
    40                           	psect	text24,global,reloc=2,class=CODE,delta=1
    41                           	psect	text25,global,reloc=2,class=CODE,delta=1
    42                           	psect	text26,global,reloc=2,class=CODE,delta=1
    43                           	psect	text27,global,reloc=2,class=CODE,delta=1
    44                           	psect	intcode,global,reloc=2,class=CODE,delta=1
    45                           	psect	intcode_body,global,reloc=2,class=CODE,delta=1
    46                           	psect	text29,global,reloc=2,class=CODE,delta=1
    47                           	psect	text30,global,reloc=2,class=CODE,delta=1
    48                           	psect	text31,global,reloc=2,class=CODE,delta=1
    49                           	psect	text32,global,reloc=2,class=CODE,delta=1,group=1
    50                           	psect	text33,global,reloc=2,class=CODE,delta=1
    51                           	psect	text34,global,reloc=2,class=CODE,delta=1
    52                           	psect	text35,global,reloc=2,class=CODE,delta=1
    53                           	psect	intsave_regs,global,class=BIGRAM,space=1,delta=1,noexec
    54                           	psect	rparam,global,class=COMRAM,space=1,delta=1,noexec
    55                           	psect	temp,global,ovrld,common,class=COMRAM,space=1,delta=1
    56                           	psect	idloc,global,abs,ovrld,class=IDLOC,space=5,delta=1,noexec
    57                           	psect	config,global,abs,ovrld,class=CONFIG,space=4,delta=1,noexec
    58  0000                     
    59                           ; Version 2.20
    60                           ; Generated 12/02/2020 GMT
    61                           ; 
    62                           ; Copyright © 2020, Microchip Technology Inc. and its subsidiaries ("Microchip")
    63                           ; All rights reserved.
    64                           ; 
    65                           ; This software is developed by Microchip Technology Inc. and its subsidiaries ("Microch
      +                          ip").
    66                           ; 
    67                           ; Redistribution and use in source and binary forms, with or without modification, are
    68                           ; permitted provided that the following conditions are met:
    69                           ; 
    70                           ;     1. Redistributions of source code must retain the above copyright notice, this lis
      +                          t of
    71                           ;        conditions and the following disclaimer.
    72                           ; 
    73                           ;     2. Redistributions in binary form must reproduce the above copyright notice, this 
      +                          list
    74                           ;        of conditions and the following disclaimer in the documentation and/or other
    75                           ;        materials provided with the distribution.
    76                           ; 
    77                           ;     3. Microchip's name may not be used to endorse or promote products derived from th
      +                          is
    78                           ;        software without specific prior written permission.
    79                           ; 
    80                           ; THIS SOFTWARE IS PROVIDED BY MICROCHIP "AS IS" AND ANY EXPRESS OR IMPLIED WARRANTIES,
    81                           ; INCLUDING, BUT NOT LIMITED TO, THE IMPLIED WARRANTIES OF MERCHANTABILITY AND FITNESS F
      +                          OR
    82                           ; PURPOSE ARE DISCLAIMED.  IN NO EVENT SHALL MICROCHIP BE LIABLE FOR ANY DIRECT, INDIREC
      +                          T,
    83                           ; INCIDENTAL, SPECIAL, EXEMPLARY, OR CONSEQUENTIAL DAMAGES (INCLUDING BUT NOT LIMITED TO
    84                           ; PROCUREMENT OF SUBSTITUTE GOODS OR SERVICES; LOSS OF USE, DATA OR PROFITS; OR BUSINESS
    85                           ; INTERRUPTION) HOWSOEVER CAUSED AND ON ANY THEORY OF LIABILITY, WHETHER IN CONTRACT, ST
      +                          RICT
    86                           ; LIABILITY, OR TORT (INCLUDING NEGLIGENCE OR OTHERWISE) ARISING IN ANY WAY OUT OF THE U
      +                          SE OF
    87                           ; THIS SOFTWARE, EVEN IF ADVISED OF THE POSSIBILITY OF SUCH DAMAGE.
    88                           ; 
    89                           ; 
    90                           ; Code-generator required, PIC18F8722 Definitions
    91                           ; 
    92                           ; SFR Addresses
    93  0000                     
    94                           	psect	idataCOMRAM
    95  002B4A                     __pidataCOMRAM:
    96                           	callstack 0
    97                           
    98                           ;initializer for _fullHeart
    99  002B4A  00                 	db	0
   100  002B4B  00                 	db	0
   101  002B4C  0A                 	db	10
   102  002B4D  1F                 	db	31
   103  002B4E  1F                 	db	31
   104  002B4F  0E                 	db	14
   105  002B50  04                 	db	4
   106  002B51  00                 	db	0
   107                           
   108                           	psect	idataBANK0
   109  00295C                     __pidataBANK0:
   110                           	callstack 0
   111                           
   112                           ;initializer for _PREDEFINED
   113  00295C  20                 	db	32
   114  00295D  61                 	db	97
   115  00295E  62                 	db	98
   116  00295F  63                 	db	99
   117  002960  64                 	db	100
   118  002961  65                 	db	101
   119  002962  66                 	db	102
   120  002963  67                 	db	103
   121  002964  68                 	db	104
   122  002965  69                 	db	105
   123  002966  6A                 	db	106
   124  002967  6B                 	db	107
   125  002968  6C                 	db	108
   126  002969  6D                 	db	109
   127  00296A  6E                 	db	110
   128  00296B  6F                 	db	111
   129  00296C  70                 	db	112
   130  00296D  71                 	db	113
   131  00296E  72                 	db	114
   132  00296F  73                 	db	115
   133  002970  74                 	db	116
   134  002971  75                 	db	117
   135  002972  76                 	db	118
   136  002973  77                 	db	119
   137  002974  78                 	db	120
   138  002975  79                 	db	121
   139  002976  7A                 	db	122
   140  002977  30                 	db	48
   141  002978  31                 	db	49
   142  002979  32                 	db	50
   143  00297A  33                 	db	51
   144  00297B  34                 	db	52
   145  00297C  35                 	db	53
   146  00297D  36                 	db	54
   147  00297E  37                 	db	55
   148  00297F  38                 	db	56
   149  002980  39                 	db	57
   150  002981  00                 	db	0
   151                           
   152                           ;initializer for _customArrayInfo
   153  002982  FFFF               	dw	65535
   154  002984  FFFF               	dw	65535
   155  002986  FFFF               	dw	65535
   156  002988  FFFF               	dw	65535
   157  00298A  FFFF               	dw	65535
   158  00298C  FFFF               	dw	65535
   159  00298E  FFFF               	dw	65535
   160  002990  FFFF               	dw	65535
   161  002992  FFFF               	dw	65535
   162  002994  FFFF               	dw	65535
   163  002996  FFFF               	dw	65535
   164  002998  FFFF               	dw	65535
   165  00299A  FFFF               	dw	65535
   166  00299C  FFFF               	dw	65535
   167  00299E  FFFF               	dw	65535
   168  0029A0  FFFF               	dw	65535
   169                           
   170                           ;initializer for _lcdChars
   171  0029A2  20                 	db	32
   172  0029A3  20                 	db	32
   173  0029A4  20                 	db	32
   174  0029A5  20                 	db	32
   175  0029A6  20                 	db	32
   176  0029A7  20                 	db	32
   177  0029A8  20                 	db	32
   178  0029A9  20                 	db	32
   179  0029AA  20                 	db	32
   180  0029AB  20                 	db	32
   181  0029AC  20                 	db	32
   182  0029AD  20                 	db	32
   183  0029AE  20                 	db	32
   184  0029AF  20                 	db	32
   185  0029B0  20                 	db	32
   186  0029B1  20                 	db	32
   187                           
   188                           	psect	idataBANK1
   189  002AB8                     __pidataBANK1:
   190                           	callstack 0
   191                           
   192                           ;initializer for _tempChars
   193  002AB8  20                 	db	32
   194  002AB9  20                 	db	32
   195  002ABA  20                 	db	32
   196  002ABB  20                 	db	32
   197  002ABC  20                 	db	32
   198  002ABD  20                 	db	32
   199  002ABE  20                 	db	32
   200  002ABF  20                 	db	32
   201  002AC0  20                 	db	32
   202  002AC1  20                 	db	32
   203  002AC2  20                 	db	32
   204  002AC3  20                 	db	32
   205  002AC4  20                 	db	32
   206  002AC5  20                 	db	32
   207  002AC6  20                 	db	32
   208  002AC7  20                 	db	32
   209                           
   210                           ;initializer for _SSEGMENT_NUMBERS_GLYPHS
   211  002AC8  3F                 	db	63
   212  002AC9  06                 	db	6
   213  002ACA  5B                 	db	91
   214  002ACB  4F                 	db	79
   215  002ACC  66                 	db	102
   216  002ACD  6D                 	db	109
   217  002ACE  7D                 	db	125
   218  002ACF  07                 	db	7
   219  002AD0  7F                 	db	127
   220  002AD1  6F                 	db	111
   221  002AD2  77                 	db	119
   222  002AD3  7C                 	db	124
   223  002AD4  58                 	db	88
   224  002AD5  5E                 	db	94
   225  002AD6  79                 	db	121
   226  002AD7  71                 	db	113
   227  0000                     _TMR0	set	4054
   228  0000                     _PORTDbits	set	3971
   229  0000                     _PORTCbits	set	3970
   230  0000                     _PORTBbits	set	3969
   231  0000                     _PORTAbits	set	3968
   232  0000                     _PORTEbits	set	3972
   233  0000                     _PORTG	set	3974
   234  0000                     _PORTF	set	3973
   235  0000                     _PORTE	set	3972
   236  0000                     _PORTC	set	3970
   237  0000                     _PORTB	set	3969
   238  0000                     _PORTA	set	3968
   239  0000                     _LATJ	set	3985
   240  0000                     _LATH	set	3984
   241  0000                     _LATG	set	3983
   242  0000                     _LATF	set	3982
   243  0000                     _LATE	set	3981
   244  0000                     _LATD	set	3980
   245  0000                     _LATC	set	3979
   246  0000                     _LATB	set	3978
   247  0000                     _LATA	set	3977
   248  0000                     _TRISJ	set	3994
   249  0000                     _TRISG	set	3992
   250  0000                     _TRISF	set	3991
   251  0000                     _TRISE	set	3990
   252  0000                     _TRISC	set	3988
   253  0000                     _TRISA	set	3986
   254  0000                     _ADCON2	set	4032
   255  0000                     _ADCON1	set	4033
   256  0000                     _ADCON0	set	4034
   257  0000                     _TRISD	set	3989
   258  0000                     _TRISB	set	3987
   259  0000                     _TRISH	set	3993
   260  0000                     _T0CON	set	4053
   261  0000                     _PORTJ	set	3976
   262  0000                     _PORTH	set	3975
   263  0000                     _ADRESL	set	4035
   264  0000                     _ADRESH	set	4036
   265  0000                     _INTCONbits	set	4082
   266  0000                     _PORTD	set	3971
   267  0000                     _GODONE	set	32273
   268  0000                     _ADIF	set	31990
   269  0000                     _LATB2	set	31826
   270  0000                     _LATB5	set	31829
   271                           
   272                           ; #config settings
   273                           
   274                           	psect	cinit
   275  002720                     __pcinit:
   276                           	callstack 0
   277  002720                     start_initialization:
   278                           	callstack 0
   279  002720                     __initialization:
   280                           	callstack 0
   281                           
   282                           ; Initialize objects allocated to BANK1 (32 bytes)
   283                           ; load TBLPTR registers with __pidataBANK1
   284  002720  0EB8               	movlw	low __pidataBANK1
   285  002722  6EF6               	movwf	tblptrl,c
   286  002724  0E2A               	movlw	high __pidataBANK1
   287  002726  6EF7               	movwf	tblptrh,c
   288  002728  0E00               	movlw	low (__pidataBANK1 shr (0+16))
   289  00272A  6EF8               	movwf	tblptru,c
   290  00272C  EE01  F000         	lfsr	0,__pdataBANK1
   291  002730  EE10 F020          	lfsr	1,32
   292  002734                     copy_data0:
   293  002734  0009               	tblrd		*+
   294  002736  CFF5 FFEE          	movff	tablat,postinc0
   295  00273A  50E5               	movf	postdec1,w,c
   296  00273C  50E1               	movf	fsr1l,w,c
   297  00273E  E1FA               	bnz	copy_data0
   298                           
   299                           ; Initialize objects allocated to BANK0 (86 bytes)
   300                           ; load TBLPTR registers with __pidataBANK0
   301  002740  0E5C               	movlw	low __pidataBANK0
   302  002742  6EF6               	movwf	tblptrl,c
   303  002744  0E29               	movlw	high __pidataBANK0
   304  002746  6EF7               	movwf	tblptrh,c
   305  002748  0E00               	movlw	low (__pidataBANK0 shr (0+16))
   306  00274A  6EF8               	movwf	tblptru,c
   307  00274C  EE00  F060         	lfsr	0,__pdataBANK0
   308  002750  EE10 F056          	lfsr	1,86
   309  002754                     copy_data1:
   310  002754  0009               	tblrd		*+
   311  002756  CFF5 FFEE          	movff	tablat,postinc0
   312  00275A  50E5               	movf	postdec1,w,c
   313  00275C  50E1               	movf	fsr1l,w,c
   314  00275E  E1FA               	bnz	copy_data1
   315                           
   316                           ; Initialize objects allocated to COMRAM (8 bytes)
   317                           ; load TBLPTR registers with __pidataCOMRAM
   318  002760  0E4A               	movlw	low __pidataCOMRAM
   319  002762  6EF6               	movwf	tblptrl,c
   320  002764  0E2B               	movlw	high __pidataCOMRAM
   321  002766  6EF7               	movwf	tblptrh,c
   322  002768  0E00               	movlw	low (__pidataCOMRAM shr (0+16))
   323  00276A  6EF8               	movwf	tblptru,c
   324  00276C  EE00  F048         	lfsr	0,__pdataCOMRAM
   325  002770  EE10 F008          	lfsr	1,8
   326  002774                     copy_data2:
   327  002774  0009               	tblrd		*+
   328  002776  CFF5 FFEE          	movff	tablat,postinc0
   329  00277A  50E5               	movf	postdec1,w,c
   330  00277C  50E1               	movf	fsr1l,w,c
   331  00277E  E1FA               	bnz	copy_data2
   332                           
   333                           ; Clear objects allocated to BANK0 (64 bytes)
   334  002780  EE00  F0B6         	lfsr	0,__pbssBANK0
   335  002784  0E40               	movlw	64
   336  002786                     clear_0:
   337  002786  6AEE               	clrf	postinc0,c
   338  002788  06E8               	decf	wreg,f,c
   339  00278A  E1FD               	bnz	clear_0
   340                           
   341                           ; Clear objects allocated to COMRAM (38 bytes)
   342  00278C  EE00  F001         	lfsr	0,__pbssCOMRAM
   343  002790  0E26               	movlw	38
   344  002792                     clear_1:
   345  002792  6AEE               	clrf	postinc0,c
   346  002794  06E8               	decf	wreg,f,c
   347  002796  E1FD               	bnz	clear_1
   348  002798                     end_of_initialization:
   349                           	callstack 0
   350  002798                     __end_of__initialization:
   351                           	callstack 0
   352  002798  9050               	bcf	int$flags,0,c	;clear compiler interrupt flag (level 1)
   353  00279A  9250               	bcf	int$flags,1,c	;clear compiler interrupt flag (level 2)
   354  00279C  0100               	movlb	0
   355  00279E  EF10  F011         	goto	_main	;jump to C main() function
   356                           
   357                           	psect	bssCOMRAM
   358  000001                     __pbssCOMRAM:
   359                           	callstack 0
   360  000001                     _check:
   361                           	callstack 0
   362  000001                     	ds	2
   363  000003                     _dummyCount:
   364                           	callstack 0
   365  000003                     	ds	2
   366  000005                     _isAtTheEdge:
   367                           	callstack 0
   368  000005                     	ds	2
   369  000007                     _customCharInsert:
   370                           	callstack 0
   371  000007                     	ds	2
   372  000009                     _isFirstArrive:
   373                           	callstack 0
   374  000009                     	ds	2
   375  00000B                     _mode:
   376                           	callstack 0
   377  00000B                     	ds	2
   378  00000D                     _customCharCount:
   379                           	callstack 0
   380  00000D                     	ds	2
   381  00000F                     _preLetterCount:
   382                           	callstack 0
   383  00000F                     	ds	2
   384  000011                     _currentLedIndex:
   385                           	callstack 0
   386  000011                     	ds	2
   387  000013                     _digit:
   388                           	callstack 0
   389  000013                     	ds	2
   390  000015                     _adcReadFlag:
   391                           	callstack 0
   392  000015                     	ds	2
   393  000017                     _adcVal:
   394                           	callstack 0
   395  000017                     	ds	2
   396  000019                     _interruptCountTMR0:
   397                           	callstack 0
   398  000019                     	ds	2
   399  00001B                     _ms30WaitedFlag:
   400                           	callstack 0
   401  00001B                     	ds	1
   402  00001C                     _ms500WaitedFlag:
   403                           	callstack 0
   404  00001C                     	ds	1
   405  00001D                     _ledIndex:
   406                           	callstack 0
   407  00001D                     	ds	1
   408  00001E                     _yCoord:
   409                           	callstack 0
   410  00001E                     	ds	1
   411  00001F                     _xCoord:
   412                           	callstack 0
   413  00001F                     	ds	1
   414  000020                     _customNum:
   415                           	callstack 0
   416  000020                     	ds	1
   417  000021                     _inp_re5_btn_st:
   418                           	callstack 0
   419  000021                     	ds	1
   420  000022                     _inp_re4_btn_st:
   421                           	callstack 0
   422  000022                     	ds	1
   423  000023                     _inp_re3_btn_st:
   424                           	callstack 0
   425  000023                     	ds	1
   426  000024                     _inp_re2_btn_st:
   427                           	callstack 0
   428  000024                     	ds	1
   429  000025                     _inp_re1_btn_st:
   430                           	callstack 0
   431  000025                     	ds	1
   432  000026                     _inp_re0_btn_st:
   433                           	callstack 0
   434  000026                     	ds	1
   435                           
   436                           	psect	dataCOMRAM
   437  000048                     __pdataCOMRAM:
   438                           	callstack 0
   439  000048                     _fullHeart:
   440                           	callstack 0
   441  000048                     	ds	8
   442                           
   443                           	psect	bssBANK0
   444  0000B6                     __pbssBANK0:
   445                           	callstack 0
   446  0000B6                     _charmap:
   447                           	callstack 0
   448  0000B6                     	ds	64
   449                           
   450                           	psect	dataBANK0
   451  000060                     __pdataBANK0:
   452                           	callstack 0
   453  000060                     _PREDEFINED:
   454                           	callstack 0
   455  000060                     	ds	38
   456  000086                     _customArrayInfo:
   457                           	callstack 0
   458  000086                     	ds	32
   459  0000A6                     _lcdChars:
   460                           	callstack 0
   461  0000A6                     	ds	16
   462                           
   463                           	psect	dataBANK1
   464  000100                     __pdataBANK1:
   465                           	callstack 0
   466  000100                     _tempChars:
   467                           	callstack 0
   468  000100                     	ds	16
   469  000110                     _SSEGMENT_NUMBERS_GLYPHS:
   470                           	callstack 0
   471  000110                     	ds	16
   472                           
   473                           	psect	cstackBANK1
   474  000120                     __pcstackBANK1:
   475                           	callstack 0
   476  000120                     CDM@i:
   477                           	callstack 0
   478                           
   479                           ; 2 bytes @ 0x0
   480  000120                     	ds	2
   481  000122                     CDM@i_810:
   482                           	callstack 0
   483                           
   484                           ; 2 bytes @ 0x2
   485  000122                     	ds	2
   486  000124                     CDM@i_811:
   487                           	callstack 0
   488                           
   489                           ; 2 bytes @ 0x4
   490  000124                     	ds	2
   491  000126                     CDM@i_812:
   492                           	callstack 0
   493                           
   494                           ; 2 bytes @ 0x6
   495  000126                     	ds	2
   496  000128                     CDM@i_813:
   497                           	callstack 0
   498                           
   499                           ; 2 bytes @ 0x8
   500  000128                     	ds	2
   501  00012A                     CDM@i_814:
   502                           	callstack 0
   503                           
   504                           ; 2 bytes @ 0xA
   505  00012A                     	ds	2
   506  00012C                     CDM@i_815:
   507                           	callstack 0
   508                           
   509                           ; 2 bytes @ 0xC
   510  00012C                     	ds	2
   511  00012E                     CDM@i_816:
   512                           	callstack 0
   513                           
   514                           ; 2 bytes @ 0xE
   515  00012E                     	ds	2
   516                           
   517                           	psect	cstackCOMRAM
   518  000027                     __pcstackCOMRAM:
   519                           	callstack 0
   520  000027                     ??_set_custom_num_seven_segment:
   521  000027                     ??_set_xCoord_seven_segment:
   522  000027                     ??_set_yCoord_seven_segment:
   523  000027                     ?___awmod:
   524                           	callstack 0
   525  000027                     i2LcdCmd@cmd:
   526                           	callstack 0
   527  000027                     ___awmod@dividend:
   528                           	callstack 0
   529                           
   530                           ; 2 bytes @ 0x0
   531  000027                     	ds	1
   532  000028                     ADCtoLCD@adcVal:
   533                           	callstack 0
   534                           
   535                           ; 2 bytes @ 0x1
   536  000028                     	ds	1
   537  000029                     ___awmod@divisor:
   538                           	callstack 0
   539                           
   540                           ; 2 bytes @ 0x2
   541  000029                     	ds	1
   542  00002A                     ??_ADCtoLCD:
   543                           
   544                           ; 1 bytes @ 0x3
   545  00002A                     	ds	1
   546  00002B                     ___awmod@counter:
   547                           	callstack 0
   548                           
   549                           ; 1 bytes @ 0x4
   550  00002B                     	ds	1
   551  00002C                     ___awmod@sign:
   552                           	callstack 0
   553                           
   554                           ; 1 bytes @ 0x5
   555  00002C                     	ds	1
   556  00002D                     ADCtoLCD@i:
   557                           	callstack 0
   558                           
   559                           ; 2 bytes @ 0x6
   560  00002D                     	ds	2
   561  00002F                     ADCtoLCD@i_725:
   562                           	callstack 0
   563                           
   564                           ; 2 bytes @ 0x8
   565  00002F                     	ds	2
   566  000031                     ??_isr:
   567                           
   568                           ; 1 bytes @ 0xA
   569  000031                     	ds	2
   570  000033                     ??_CDMcoordHelper:
   571  000033                     ??_CMDledTask:
   572  000033                     ?_re4_pressed:
   573                           	callstack 0
   574  000033                     LcdCmd@cmd:
   575                           	callstack 0
   576  000033                     LcdData@data:
   577                           	callstack 0
   578  000033                     leftRotate@lcdChars:
   579                           	callstack 0
   580  000033                     leftRotateArray@customArrayInfo:
   581                           	callstack 0
   582                           
   583                           ; 2 bytes @ 0xC
   584  000033                     	ds	1
   585  000034                     ??_LcdClear:
   586  000034                     ??_customChange:
   587  000034                     modeChange@temp:
   588                           	callstack 0
   589                           
   590                           ; 1 bytes @ 0xD
   591  000034                     	ds	1
   592  000035                     ??_leftRotate:
   593  000035                     ??_leftRotateArray:
   594  000035                     modeChange@i:
   595                           	callstack 0
   596  000035                     CMDledTask@i:
   597                           	callstack 0
   598                           
   599                           ; 2 bytes @ 0xE
   600  000035                     	ds	1
   601  000036                     ??_InitLCD:
   602                           
   603                           ; 1 bytes @ 0xF
   604  000036                     	ds	1
   605  000037                     leftRotate@temp:
   606                           	callstack 0
   607  000037                     CMDledTask@bitStatus:
   608                           	callstack 0
   609                           
   610                           ; 1 bytes @ 0x10
   611  000037                     	ds	1
   612  000038                     ??_init:
   613  000038                     leftRotate@j:
   614                           	callstack 0
   615  000038                     CMDledTask@j:
   616                           	callstack 0
   617                           
   618                           ; 2 bytes @ 0x11
   619  000038                     	ds	1
   620  000039                     leftRotateArray@temp:
   621                           	callstack 0
   622                           
   623                           ; 2 bytes @ 0x12
   624  000039                     	ds	1
   625  00003A                     ??_CDM:
   626  00003A                     init@i:
   627                           	callstack 0
   628                           
   629                           ; 1 bytes @ 0x13
   630  00003A                     	ds	1
   631  00003B                     init@j:
   632                           	callstack 0
   633  00003B                     leftRotateArray@j:
   634                           	callstack 0
   635                           
   636                           ; 2 bytes @ 0x14
   637  00003B                     	ds	2
   638  00003D                     
   639                           ; 1 bytes @ 0x16
   640  00003D                     	ds	2
   641  00003F                     TSM@i:
   642                           	callstack 0
   643                           
   644                           ; 2 bytes @ 0x18
   645  00003F                     	ds	2
   646  000041                     TSM@i_766:
   647                           	callstack 0
   648                           
   649                           ; 2 bytes @ 0x1A
   650  000041                     	ds	2
   651  000043                     TSM@i_764:
   652                           	callstack 0
   653                           
   654                           ; 2 bytes @ 0x1C
   655  000043                     	ds	2
   656  000045                     TSM@i_765:
   657                           	callstack 0
   658                           
   659                           ; 2 bytes @ 0x1E
   660  000045                     	ds	2
   661  000047                     TSM@temp:
   662                           	callstack 0
   663                           
   664                           ; 1 bytes @ 0x20
   665  000047                     	ds	1
   666  000048                     
   667                           ; 1 bytes @ 0x21
   668 ;;
   669 ;;Main: autosize = 0, tempsize = 0, incstack = 0, save=0
   670 ;;
   671 ;; *************** function _main *****************
   672 ;; Defined at:
   673 ;;		line 1297 in file "the3.c"
   674 ;; Parameters:    Size  Location     Type
   675 ;;		None
   676 ;; Auto vars:     Size  Location     Type
   677 ;;		None
   678 ;; Return value:  Size  Location     Type
   679 ;;                  1    wreg      void 
   680 ;; Registers used:
   681 ;;		wreg, fsr1l, fsr1h, fsr2l, fsr2h, status,2, status,0, prodl, prodh, cstack
   682 ;; Tracked objects:
   683 ;;		On entry : 0/0
   684 ;;		On exit  : 0/0
   685 ;;		Unchanged: 0/0
   686 ;; Data sizes:     COMRAM   BANK0   BANK1   BANK2   BANK3   BANK4   BANK5   BANK6   BANK7   BANK8   BANK9  BANK10  BANK1
      +1  BANK12  BANK13  BANK14  BANK15
   687 ;;      Params:         0       0       0       0       0       0       0       0       0       0       0       0       
      +0       0       0       0       0
   688 ;;      Locals:         0       0       0       0       0       0       0       0       0       0       0       0       
      +0       0       0       0       0
   689 ;;      Temps:          0       0       0       0       0       0       0       0       0       0       0       0       
      +0       0       0       0       0
   690 ;;      Totals:         0       0       0       0       0       0       0       0       0       0       0       0       
      +0       0       0       0       0
   691 ;;Total ram usage:        0 bytes
   692 ;; Hardware stack levels required when called:    9
   693 ;; This function calls:
   694 ;;		_CDM
   695 ;;		_CDMcoordHelper
   696 ;;		_CDMpressCheck
   697 ;;		_TEMpressCheck
   698 ;;		_TSM
   699 ;;		_init
   700 ;;		_init_CDM_mode
   701 ;;		_init_irq
   702 ;;		_init_ports
   703 ;;		_input_task
   704 ;;		_startRE0and3
   705 ;;		_stopRE0and3
   706 ;;		_tmr0_init
   707 ;; This function is called by:
   708 ;;		Startup code after reset
   709 ;; This function uses a non-reentrant model
   710 ;;
   711                           
   712                           	psect	text0
   713  002220                     __ptext0:
   714                           	callstack 0
   715  002220                     _main:
   716                           	callstack 22
   717  002220                     
   718                           ;the3.c: 1299:   init_ports();
   719  002220  EC0E  F014         	call	_init_ports	;wreg free
   720                           
   721                           ;the3.c: 1300:   tmr0_init();
   722  002224  EC9E  F015         	call	_tmr0_init	;wreg free
   723  002228                     
   724                           ;the3.c: 1301:   init_irq();
   725  002228  ECA9  F015         	call	_init_irq	;wreg free
   726  00222C                     
   727                           ;the3.c: 1302:   init();
   728  00222C  ECC0  F012         	call	_init	;wreg free
   729  002230                     l5190:
   730                           
   731                           ;the3.c: 1304:   {;the3.c: 1305:     GODONE = 1;
   732  002230  82C2               	bsf	4034,1,c	;volatile
   733  002232                     
   734                           ;the3.c: 1307:     if (mode == 0)
   735  002232  500B               	movf	_mode^0,w,c
   736  002234  100C               	iorwf	(_mode+1)^0,w,c
   737  002236  A4D8               	btfss	status,2,c
   738  002238  EF20  F011         	goto	u7981
   739  00223C  EF22  F011         	goto	u7980
   740  002240                     u7981:
   741  002240  EF36  F011         	goto	l5202
   742  002244                     u7980:
   743  002244                     
   744                           ;the3.c: 1308:     {;the3.c: 1309:       if (customNum == 0)
   745  002244  5020               	movf	_customNum^0,w,c
   746  002246  A4D8               	btfss	status,2,c
   747  002248  EF28  F011         	goto	u7991
   748  00224C  EF2A  F011         	goto	u7990
   749  002250                     u7991:
   750  002250  EF2E  F011         	goto	l5198
   751  002254                     u7990:
   752  002254                     
   753                           ;the3.c: 1310:       {;the3.c: 1311:         stopRE0and3();
   754  002254  ECAD  F015         	call	_stopRE0and3	;wreg free
   755                           
   756                           ;the3.c: 1312:       }
   757  002258  EF30  F011         	goto	l639
   758  00225C                     l5198:
   759                           
   760                           ;the3.c: 1314:       {;the3.c: 1315:         startRE0and3();
   761  00225C  ECB0  F015         	call	_startRE0and3	;wreg free
   762  002260                     l639:
   763                           
   764                           ;the3.c: 1317:       input_task();
   765  002260  EC4D  F013         	call	_input_task	;wreg free
   766  002264                     
   767                           ;the3.c: 1318:       TEMpressCheck();
   768  002264  ECAB  F010         	call	_TEMpressCheck	;wreg free
   769                           
   770                           ;the3.c: 1319:     }
   771  002268  EF18  F011         	goto	l5190
   772  00226C                     l5202:
   773  00226C  0E02               	movlw	2
   774  00226E  180B               	xorwf	_mode^0,w,c
   775  002270  100C               	iorwf	(_mode+1)^0,w,c
   776  002272  A4D8               	btfss	status,2,c
   777  002274  EF3E  F011         	goto	u8001
   778  002278  EF40  F011         	goto	u8000
   779  00227C                     u8001:
   780  00227C  EF44  F011         	goto	l5206
   781  002280                     u8000:
   782  002280                     
   783                           ;the3.c: 1321:     {;the3.c: 1323:       TSM();
   784  002280  EC7B  F00D         	call	_TSM	;wreg free
   785                           
   786                           ;the3.c: 1324:     }
   787  002284  EF18  F011         	goto	l5190
   788  002288                     l5206:
   789  002288  040B               	decf	_mode^0,w,c
   790  00228A  100C               	iorwf	(_mode+1)^0,w,c
   791  00228C  A4D8               	btfss	status,2,c
   792  00228E  EF4B  F011         	goto	u8011
   793  002292  EF4D  F011         	goto	u8010
   794  002296                     u8011:
   795  002296  EF6F  F011         	goto	l640
   796  00229A                     u8010:
   797  00229A                     
   798                           ;the3.c: 1326:     {;the3.c: 1327:       if (customNum != 8)
   799  00229A  0E08               	movlw	8
   800  00229C  1820               	xorwf	_customNum^0,w,c
   801  00229E  B4D8               	btfsc	status,2,c
   802  0022A0  EF54  F011         	goto	u8021
   803  0022A4  EF56  F011         	goto	u8020
   804  0022A8                     u8021:
   805  0022A8  EF6B  F011         	goto	l5222
   806  0022AC                     u8020:
   807  0022AC                     
   808                           ;the3.c: 1328:       {;the3.c: 1329:         input_task();
   809  0022AC  EC4D  F013         	call	_input_task	;wreg free
   810  0022B0                     
   811                           ;the3.c: 1330:         CDMpressCheck();
   812  0022B0  EC4A  F015         	call	_CDMpressCheck	;wreg free
   813  0022B4                     
   814                           ;the3.c: 1331:         CDMcoordHelper();
   815  0022B4  EC82  F00E         	call	_CDMcoordHelper	;wreg free
   816  0022B8                     
   817                           ;the3.c: 1332:         if (isFirstArrive)
   818  0022B8  5009               	movf	_isFirstArrive^0,w,c
   819  0022BA  100A               	iorwf	(_isFirstArrive+1)^0,w,c
   820  0022BC  B4D8               	btfsc	status,2,c
   821  0022BE  EF63  F011         	goto	u8031
   822  0022C2  EF65  F011         	goto	u8030
   823  0022C6                     u8031:
   824  0022C6  EF6B  F011         	goto	l5222
   825  0022CA                     u8030:
   826  0022CA                     
   827                           ;the3.c: 1333:         {;the3.c: 1334:           init_CDM_mode();
   828  0022CA  EC6C  F015         	call	_init_CDM_mode	;wreg free
   829  0022CE                     
   830                           ;the3.c: 1335:           isFirstArrive = 0;
   831  0022CE  0E00               	movlw	0
   832  0022D0  6E0A               	movwf	(_isFirstArrive+1)^0,c
   833  0022D2  0E00               	movlw	0
   834  0022D4  6E09               	movwf	_isFirstArrive^0,c
   835  0022D6                     l5222:
   836                           
   837                           ;the3.c: 1338:       CDM();
   838  0022D6  EC54  F009         	call	_CDM	;wreg free
   839  0022DA  EF18  F011         	goto	l5190
   840  0022DE                     l640:
   841  0022DE  EF18  F011         	goto	l5190
   842  0022E2  EF07  F000         	goto	start
   843  0022E6                     __end_of_main:
   844                           	callstack 0
   845                           
   846 ;; *************** function _tmr0_init *****************
   847 ;; Defined at:
   848 ;;		line 387 in file "the3.c"
   849 ;; Parameters:    Size  Location     Type
   850 ;;		None
   851 ;; Auto vars:     Size  Location     Type
   852 ;;		None
   853 ;; Return value:  Size  Location     Type
   854 ;;                  1    wreg      void 
   855 ;; Registers used:
   856 ;;		wreg, status,2
   857 ;; Tracked objects:
   858 ;;		On entry : 0/0
   859 ;;		On exit  : 0/0
   860 ;;		Unchanged: 0/0
   861 ;; Data sizes:     COMRAM   BANK0   BANK1   BANK2   BANK3   BANK4   BANK5   BANK6   BANK7   BANK8   BANK9  BANK10  BANK1
      +1  BANK12  BANK13  BANK14  BANK15
   862 ;;      Params:         0       0       0       0       0       0       0       0       0       0       0       0       
      +0       0       0       0       0
   863 ;;      Locals:         0       0       0       0       0       0       0       0       0       0       0       0       
      +0       0       0       0       0
   864 ;;      Temps:          0       0       0       0       0       0       0       0       0       0       0       0       
      +0       0       0       0       0
   865 ;;      Totals:         0       0       0       0       0       0       0       0       0       0       0       0       
      +0       0       0       0       0
   866 ;;Total ram usage:        0 bytes
   867 ;; Hardware stack levels used:    1
   868 ;; Hardware stack levels required when called:    4
   869 ;; This function calls:
   870 ;;		Nothing
   871 ;; This function is called by:
   872 ;;		_main
   873 ;; This function uses a non-reentrant model
   874 ;;
   875                           
   876                           	psect	text1
   877  002B3C                     __ptext1:
   878                           	callstack 0
   879  002B3C                     _tmr0_init:
   880                           	callstack 26
   881  002B3C                     
   882                           ;the3.c: 395:   T0CON = 0b11000111;
   883  002B3C  0EC7               	movlw	199
   884  002B3E  6ED5               	movwf	213,c	;volatile
   885                           
   886                           ;the3.c: 396:   TMR0 = 217;
   887  002B40  0E00               	movlw	0
   888  002B42  6ED7               	movwf	215,c	;volatile
   889  002B44  0ED9               	movlw	217
   890  002B46  6ED6               	movwf	214,c	;volatile
   891  002B48  0012               	return		;funcret
   892  002B4A                     __end_of_tmr0_init:
   893                           	callstack 0
   894                           
   895 ;; *************** function _stopRE0and3 *****************
   896 ;; Defined at:
   897 ;;		line 1276 in file "the3.c"
   898 ;; Parameters:    Size  Location     Type
   899 ;;		None
   900 ;; Auto vars:     Size  Location     Type
   901 ;;		None
   902 ;; Return value:  Size  Location     Type
   903 ;;                  1    wreg      void 
   904 ;; Registers used:
   905 ;;		wreg, status,2
   906 ;; Tracked objects:
   907 ;;		On entry : 0/0
   908 ;;		On exit  : 0/0
   909 ;;		Unchanged: 0/0
   910 ;; Data sizes:     COMRAM   BANK0   BANK1   BANK2   BANK3   BANK4   BANK5   BANK6   BANK7   BANK8   BANK9  BANK10  BANK1
      +1  BANK12  BANK13  BANK14  BANK15
   911 ;;      Params:         0       0       0       0       0       0       0       0       0       0       0       0       
      +0       0       0       0       0
   912 ;;      Locals:         0       0       0       0       0       0       0       0       0       0       0       0       
      +0       0       0       0       0
   913 ;;      Temps:          0       0       0       0       0       0       0       0       0       0       0       0       
      +0       0       0       0       0
   914 ;;      Totals:         0       0       0       0       0       0       0       0       0       0       0       0       
      +0       0       0       0       0
   915 ;;Total ram usage:        0 bytes
   916 ;; Hardware stack levels used:    1
   917 ;; Hardware stack levels required when called:    4
   918 ;; This function calls:
   919 ;;		Nothing
   920 ;; This function is called by:
   921 ;;		_main
   922 ;; This function uses a non-reentrant model
   923 ;;
   924                           
   925                           	psect	text2
   926  002B5A                     __ptext2:
   927                           	callstack 0
   928  002B5A                     _stopRE0and3:
   929                           	callstack 26
   930  002B5A                     
   931                           ;the3.c: 1278:   TRISE = 0b00110110;
   932  002B5A  0E36               	movlw	54
   933  002B5C  6E96               	movwf	150,c	;volatile
   934  002B5E  0012               	return		;funcret
   935  002B60                     __end_of_stopRE0and3:
   936                           	callstack 0
   937                           
   938 ;; *************** function _init_ports *****************
   939 ;; Defined at:
   940 ;;		line 442 in file "the3.c"
   941 ;; Parameters:    Size  Location     Type
   942 ;;		None
   943 ;; Auto vars:     Size  Location     Type
   944 ;;		None
   945 ;; Return value:  Size  Location     Type
   946 ;;                  1    wreg      void 
   947 ;; Registers used:
   948 ;;		wreg, status,2
   949 ;; Tracked objects:
   950 ;;		On entry : 0/0
   951 ;;		On exit  : 0/0
   952 ;;		Unchanged: 0/0
   953 ;; Data sizes:     COMRAM   BANK0   BANK1   BANK2   BANK3   BANK4   BANK5   BANK6   BANK7   BANK8   BANK9  BANK10  BANK1
      +1  BANK12  BANK13  BANK14  BANK15
   954 ;;      Params:         0       0       0       0       0       0       0       0       0       0       0       0       
      +0       0       0       0       0
   955 ;;      Locals:         0       0       0       0       0       0       0       0       0       0       0       0       
      +0       0       0       0       0
   956 ;;      Temps:          0       0       0       0       0       0       0       0       0       0       0       0       
      +0       0       0       0       0
   957 ;;      Totals:         0       0       0       0       0       0       0       0       0       0       0       0       
      +0       0       0       0       0
   958 ;;Total ram usage:        0 bytes
   959 ;; Hardware stack levels used:    1
   960 ;; Hardware stack levels required when called:    4
   961 ;; This function calls:
   962 ;;		Nothing
   963 ;; This function is called by:
   964 ;;		_main
   965 ;; This function uses a non-reentrant model
   966 ;;
   967                           
   968                           	psect	text3
   969  00281C                     __ptext3:
   970                           	callstack 0
   971  00281C                     _init_ports:
   972                           	callstack 26
   973  00281C                     
   974                           ;the3.c: 444:   TRISA = 0x00;
   975  00281C  0E00               	movlw	0
   976  00281E  6E92               	movwf	146,c	;volatile
   977                           
   978                           ;the3.c: 445:   TRISB = 0x00;
   979  002820  0E00               	movlw	0
   980  002822  6E93               	movwf	147,c	;volatile
   981                           
   982                           ;the3.c: 446:   TRISC = 0x00;
   983  002824  0E00               	movlw	0
   984  002826  6E94               	movwf	148,c	;volatile
   985                           
   986                           ;the3.c: 447:   TRISD = 0x00;
   987  002828  0E00               	movlw	0
   988  00282A  6E95               	movwf	149,c	;volatile
   989                           
   990                           ;the3.c: 448:   TRISE = 0b00111111;
   991  00282C  0E3F               	movlw	63
   992  00282E  6E96               	movwf	150,c	;volatile
   993                           
   994                           ;the3.c: 449:   TRISF = 0x00;
   995  002830  0E00               	movlw	0
   996  002832  6E97               	movwf	151,c	;volatile
   997                           
   998                           ;the3.c: 450:   TRISG = 0x00;
   999  002834  0E00               	movlw	0
  1000  002836  6E98               	movwf	152,c	;volatile
  1001                           
  1002                           ;the3.c: 451:   TRISH = 0x00;
  1003  002838  0E00               	movlw	0
  1004  00283A  6E99               	movwf	153,c	;volatile
  1005                           
  1006                           ;the3.c: 452:   TRISJ = 0x00;
  1007  00283C  0E00               	movlw	0
  1008  00283E  6E9A               	movwf	154,c	;volatile
  1009                           
  1010                           ;the3.c: 454:   LATA = 0x00;
  1011  002840  0E00               	movlw	0
  1012  002842  6E89               	movwf	137,c	;volatile
  1013                           
  1014                           ;the3.c: 455:   LATB = 0x00;
  1015  002844  0E00               	movlw	0
  1016  002846  6E8A               	movwf	138,c	;volatile
  1017                           
  1018                           ;the3.c: 456:   LATC = 0x00;
  1019  002848  0E00               	movlw	0
  1020  00284A  6E8B               	movwf	139,c	;volatile
  1021                           
  1022                           ;the3.c: 457:   LATD = 0x00;
  1023  00284C  0E00               	movlw	0
  1024  00284E  6E8C               	movwf	140,c	;volatile
  1025                           
  1026                           ;the3.c: 458:   LATE = 0x00;
  1027  002850  0E00               	movlw	0
  1028  002852  6E8D               	movwf	141,c	;volatile
  1029                           
  1030                           ;the3.c: 459:   LATF = 0x00;
  1031  002854  0E00               	movlw	0
  1032  002856  6E8E               	movwf	142,c	;volatile
  1033                           
  1034                           ;the3.c: 460:   LATG = 0x00;
  1035  002858  0E00               	movlw	0
  1036  00285A  6E8F               	movwf	143,c	;volatile
  1037                           
  1038                           ;the3.c: 461:   LATH = 0x00;
  1039  00285C  0E00               	movlw	0
  1040  00285E  6E90               	movwf	144,c	;volatile
  1041                           
  1042                           ;the3.c: 462:   LATJ = 0x00;
  1043  002860  0E00               	movlw	0
  1044  002862  6E91               	movwf	145,c	;volatile
  1045                           
  1046                           ;the3.c: 464:   PORTA = 0x00;
  1047  002864  0E00               	movlw	0
  1048  002866  6E80               	movwf	128,c	;volatile
  1049                           
  1050                           ;the3.c: 465:   PORTB = 0x00;
  1051  002868  0E00               	movlw	0
  1052  00286A  6E81               	movwf	129,c	;volatile
  1053                           
  1054                           ;the3.c: 466:   PORTC = 0x00;
  1055  00286C  0E00               	movlw	0
  1056  00286E  6E82               	movwf	130,c	;volatile
  1057                           
  1058                           ;the3.c: 467:   PORTD = 0x00;
  1059  002870  0E00               	movlw	0
  1060  002872  6E83               	movwf	131,c	;volatile
  1061                           
  1062                           ;the3.c: 468:   PORTE = 0x00;
  1063  002874  0E00               	movlw	0
  1064  002876  6E84               	movwf	132,c	;volatile
  1065                           
  1066                           ;the3.c: 469:   PORTF = 0x00;
  1067  002878  0E00               	movlw	0
  1068  00287A  6E85               	movwf	133,c	;volatile
  1069                           
  1070                           ;the3.c: 470:   PORTG = 0x00;
  1071  00287C  0E00               	movlw	0
  1072  00287E  6E86               	movwf	134,c	;volatile
  1073                           
  1074                           ;the3.c: 471:   PORTH = 0x00;
  1075  002880  0E00               	movlw	0
  1076  002882  6E87               	movwf	135,c	;volatile
  1077                           
  1078                           ;the3.c: 472:   PORTJ = 0x00;
  1079  002884  0E00               	movlw	0
  1080  002886  6E88               	movwf	136,c	;volatile
  1081  002888  0012               	return		;funcret
  1082  00288A                     __end_of_init_ports:
  1083                           	callstack 0
  1084                           
  1085 ;; *************** function _init_irq *****************
  1086 ;; Defined at:
  1087 ;;		line 380 in file "the3.c"
  1088 ;; Parameters:    Size  Location     Type
  1089 ;;		None
  1090 ;; Auto vars:     Size  Location     Type
  1091 ;;		None
  1092 ;; Return value:  Size  Location     Type
  1093 ;;                  1    wreg      void 
  1094 ;; Registers used:
  1095 ;;		None
  1096 ;; Tracked objects:
  1097 ;;		On entry : 0/0
  1098 ;;		On exit  : 0/0
  1099 ;;		Unchanged: 0/0
  1100 ;; Data sizes:     COMRAM   BANK0   BANK1   BANK2   BANK3   BANK4   BANK5   BANK6   BANK7   BANK8   BANK9  BANK10  BANK1
      +1  BANK12  BANK13  BANK14  BANK15
  1101 ;;      Params:         0       0       0       0       0       0       0       0       0       0       0       0       
      +0       0       0       0       0
  1102 ;;      Locals:         0       0       0       0       0       0       0       0       0       0       0       0       
      +0       0       0       0       0
  1103 ;;      Temps:          0       0       0       0       0       0       0       0       0       0       0       0       
      +0       0       0       0       0
  1104 ;;      Totals:         0       0       0       0       0       0       0       0       0       0       0       0       
      +0       0       0       0       0
  1105 ;;Total ram usage:        0 bytes
  1106 ;; Hardware stack levels used:    1
  1107 ;; Hardware stack levels required when called:    4
  1108 ;; This function calls:
  1109 ;;		Nothing
  1110 ;; This function is called by:
  1111 ;;		_main
  1112 ;; This function uses a non-reentrant model
  1113 ;;
  1114                           
  1115                           	psect	text4
  1116  002B52                     __ptext4:
  1117                           	callstack 0
  1118  002B52                     _init_irq:
  1119                           	callstack 26
  1120  002B52                     
  1121                           ;the3.c: 382:   INTCONbits.TMR0IE = 1;
  1122  002B52  8AF2               	bsf	242,5,c	;volatile
  1123                           
  1124                           ;the3.c: 383:   INTCONbits.TMR0IF = 0;
  1125  002B54  94F2               	bcf	242,2,c	;volatile
  1126                           
  1127                           ;the3.c: 384:   INTCONbits.GIE = 1;
  1128  002B56  8EF2               	bsf	242,7,c	;volatile
  1129  002B58  0012               	return		;funcret
  1130  002B5A                     __end_of_init_irq:
  1131                           	callstack 0
  1132                           
  1133 ;; *************** function _init_CDM_mode *****************
  1134 ;; Defined at:
  1135 ;;		line 980 in file "the3.c"
  1136 ;; Parameters:    Size  Location     Type
  1137 ;;		None
  1138 ;; Auto vars:     Size  Location     Type
  1139 ;;		None
  1140 ;; Return value:  Size  Location     Type
  1141 ;;                  1    wreg      void 
  1142 ;; Registers used:
  1143 ;;		wreg, status,2, status,0, cstack
  1144 ;; Tracked objects:
  1145 ;;		On entry : 0/0
  1146 ;;		On exit  : 0/0
  1147 ;;		Unchanged: 0/0
  1148 ;; Data sizes:     COMRAM   BANK0   BANK1   BANK2   BANK3   BANK4   BANK5   BANK6   BANK7   BANK8   BANK9  BANK10  BANK1
      +1  BANK12  BANK13  BANK14  BANK15
  1149 ;;      Params:         0       0       0       0       0       0       0       0       0       0       0       0       
      +0       0       0       0       0
  1150 ;;      Locals:         0       0       0       0       0       0       0       0       0       0       0       0       
      +0       0       0       0       0
  1151 ;;      Temps:          0       0       0       0       0       0       0       0       0       0       0       0       
      +0       0       0       0       0
  1152 ;;      Totals:         0       0       0       0       0       0       0       0       0       0       0       0       
      +0       0       0       0       0
  1153 ;;Total ram usage:        0 bytes
  1154 ;; Hardware stack levels used:    1
  1155 ;; Hardware stack levels required when called:    8
  1156 ;; This function calls:
  1157 ;;		_InitLCD
  1158 ;;		_LcdClear
  1159 ;;		_LcdCmd
  1160 ;; This function is called by:
  1161 ;;		_main
  1162 ;; This function uses a non-reentrant model
  1163 ;;
  1164                           
  1165                           	psect	text5
  1166  002AD8                     __ptext5:
  1167                           	callstack 0
  1168  002AD8                     _init_CDM_mode:
  1169                           	callstack 22
  1170  002AD8                     
  1171                           ;the3.c: 982:   LcdClear();
  1172  002AD8  EC7C  F015         	call	_LcdClear	;wreg free
  1173                           
  1174                           ;the3.c: 983:   InitLCD();
  1175  002ADC  ECD1  F013         	call	_InitLCD	;wreg free
  1176                           
  1177                           ;the3.c: 984:   LcdCmd(0x0e);
  1178  002AE0  0E0E               	movlw	14
  1179  002AE2  EC0B  F015         	call	_LcdCmd
  1180  002AE6                     
  1181                           ;the3.c: 986:   LATA = 0x00;
  1182  002AE6  0E00               	movlw	0
  1183  002AE8  6E89               	movwf	137,c	;volatile
  1184  002AEA                     
  1185                           ;the3.c: 987:   LATB = 0x00;
  1186  002AEA  0E00               	movlw	0
  1187  002AEC  6E8A               	movwf	138,c	;volatile
  1188  002AEE                     
  1189                           ;the3.c: 988:   LATC = 0x00;
  1190  002AEE  0E00               	movlw	0
  1191  002AF0  6E8B               	movwf	139,c	;volatile
  1192  002AF2                     
  1193                           ;the3.c: 989:   LATD = 0x00;
  1194  002AF2  0E00               	movlw	0
  1195  002AF4  6E8C               	movwf	140,c	;volatile
  1196  002AF6  0012               	return		;funcret
  1197  002AF8                     __end_of_init_CDM_mode:
  1198                           	callstack 0
  1199                           
  1200 ;; *************** function _init *****************
  1201 ;; Defined at:
  1202 ;;		line 399 in file "the3.c"
  1203 ;; Parameters:    Size  Location     Type
  1204 ;;		None
  1205 ;; Auto vars:     Size  Location     Type
  1206 ;;  j               1   20[COMRAM] unsigned char 
  1207 ;;  i               1   19[COMRAM] unsigned char 
  1208 ;; Return value:  Size  Location     Type
  1209 ;;                  1    wreg      void 
  1210 ;; Registers used:
  1211 ;;		wreg, fsr2l, fsr2h, status,2, status,0, prodl, prodh, cstack
  1212 ;; Tracked objects:
  1213 ;;		On entry : 0/0
  1214 ;;		On exit  : 0/0
  1215 ;;		Unchanged: 0/0
  1216 ;; Data sizes:     COMRAM   BANK0   BANK1   BANK2   BANK3   BANK4   BANK5   BANK6   BANK7   BANK8   BANK9  BANK10  BANK1
      +1  BANK12  BANK13  BANK14  BANK15
  1217 ;;      Params:         0       0       0       0       0       0       0       0       0       0       0       0       
      +0       0       0       0       0
  1218 ;;      Locals:         2       0       0       0       0       0       0       0       0       0       0       0       
      +0       0       0       0       0
  1219 ;;      Temps:          2       0       0       0       0       0       0       0       0       0       0       0       
      +0       0       0       0       0
  1220 ;;      Totals:         4       0       0       0       0       0       0       0       0       0       0       0       
      +0       0       0       0       0
  1221 ;;Total ram usage:        4 bytes
  1222 ;; Hardware stack levels used:    1
  1223 ;; Hardware stack levels required when called:    8
  1224 ;; This function calls:
  1225 ;;		_InitLCD
  1226 ;;		_LcdCmd
  1227 ;; This function is called by:
  1228 ;;		_main
  1229 ;; This function uses a non-reentrant model
  1230 ;;
  1231                           
  1232                           	psect	text6
  1233  002580                     __ptext6:
  1234                           	callstack 0
  1235  002580                     _init:
  1236                           	callstack 22
  1237  002580                     
  1238                           ;the3.c: 402:   TRISH = 0x10;
  1239  002580  0E10               	movlw	16
  1240  002582  6E99               	movwf	153,c	;volatile
  1241                           
  1242                           ;the3.c: 404:   TRISB = 0x00;
  1243  002584  0E00               	movlw	0
  1244  002586  6E93               	movwf	147,c	;volatile
  1245                           
  1246                           ;the3.c: 405:   TRISD = 0x00;
  1247  002588  0E00               	movlw	0
  1248  00258A  6E95               	movwf	149,c	;volatile
  1249                           
  1250                           ;the3.c: 407:   ADCON0 = 0x31;
  1251  00258C  0E31               	movlw	49
  1252  00258E  6EC2               	movwf	194,c	;volatile
  1253                           
  1254                           ;the3.c: 408:   ADCON1 = 0x00;
  1255  002590  0E00               	movlw	0
  1256  002592  6EC1               	movwf	193,c	;volatile
  1257                           
  1258                           ;the3.c: 409:   ADCON2 = 0xAA;
  1259  002594  0EAA               	movlw	170
  1260  002596  6EC0               	movwf	192,c	;volatile
  1261                           
  1262                           ;the3.c: 410:   ADRESH = 0x00;
  1263  002598  0E00               	movlw	0
  1264  00259A  6EC4               	movwf	196,c	;volatile
  1265                           
  1266                           ;the3.c: 411:   ADRESL = 0x00;
  1267  00259C  0E00               	movlw	0
  1268  00259E  6EC3               	movwf	195,c	;volatile
  1269                           
  1270                           ;the3.c: 413:   for (uint8_t i = 0; i < 8; i++)
  1271  0025A0  0E00               	movlw	0
  1272  0025A2  6E3A               	movwf	init@i^0,c
  1273  0025A4                     l4828:
  1274                           
  1275                           ;the3.c: 414:   {;the3.c: 415:     for (uint8_t j = 0; j < 8; j++)
  1276  0025A4  0E00               	movlw	0
  1277  0025A6  6E3B               	movwf	init@j^0,c
  1278  0025A8                     l4834:
  1279                           
  1280                           ;the3.c: 416:     {;the3.c: 417:       charmap[i][j] = 0;
  1281  0025A8  503A               	movf	init@i^0,w,c
  1282  0025AA  0D08               	mullw	8
  1283  0025AC  0EB6               	movlw	low _charmap
  1284  0025AE  6E38               	movwf	??_init^0,c
  1285  0025B0  0E00               	movlw	high _charmap
  1286  0025B2  6E39               	movwf	(??_init+1)^0,c
  1287  0025B4  50F3               	movf	243,w,c
  1288  0025B6  2638               	addwf	??_init^0,f,c
  1289  0025B8  50F4               	movf	244,w,c
  1290  0025BA  2239               	addwfc	(??_init+1)^0,f,c
  1291  0025BC  503B               	movf	init@j^0,w,c
  1292  0025BE  2438               	addwf	??_init^0,w,c
  1293  0025C0  6ED9               	movwf	fsr2l,c
  1294  0025C2  0E00               	movlw	0
  1295  0025C4  2039               	addwfc	(??_init+1)^0,w,c
  1296  0025C6  6EDA               	movwf	fsr2h,c
  1297  0025C8  0E00               	movlw	0
  1298  0025CA  6EDF               	movwf	indf2,c
  1299  0025CC                     
  1300                           ;the3.c: 418:     }
  1301  0025CC  2A3B               	incf	init@j^0,f,c
  1302  0025CE  0E07               	movlw	7
  1303  0025D0  643B               	cpfsgt	init@j^0,c
  1304  0025D2  EFED  F012         	goto	u7531
  1305  0025D6  EFEF  F012         	goto	u7530
  1306  0025DA                     u7531:
  1307  0025DA  EFD4  F012         	goto	l4834
  1308  0025DE                     u7530:
  1309  0025DE                     
  1310                           ;the3.c: 419:   }
  1311  0025DE  2A3A               	incf	init@i^0,f,c
  1312  0025E0  0E07               	movlw	7
  1313  0025E2  643A               	cpfsgt	init@i^0,c
  1314  0025E4  EFF6  F012         	goto	u7541
  1315  0025E8  EFF8  F012         	goto	u7540
  1316  0025EC                     u7541:
  1317  0025EC  EFD2  F012         	goto	l4828
  1318  0025F0                     u7540:
  1319  0025F0                     
  1320                           ;the3.c: 421:   InitLCD();
  1321  0025F0  ECD1  F013         	call	_InitLCD	;wreg free
  1322  0025F4                     
  1323                           ;the3.c: 422:   if (ms30WaitedFlag)
  1324  0025F4  501B               	movf	_ms30WaitedFlag^0,w,c
  1325  0025F6  B4D8               	btfsc	status,2,c
  1326  0025F8  EF00  F013         	goto	u7551
  1327  0025FC  EF02  F013         	goto	u7550
  1328  002600                     u7551:
  1329  002600  EF07  F013         	goto	l335
  1330  002604                     u7550:
  1331  002604                     
  1332                           ;the3.c: 423:   {;the3.c: 424:     LcdCmd(0b00001110);
  1333  002604  0E0E               	movlw	14
  1334  002606  EC0B  F015         	call	_LcdCmd
  1335  00260A                     
  1336                           ;the3.c: 425:     ms30WaitedFlag = 0;
  1337  00260A  0E00               	movlw	0
  1338  00260C  6E1B               	movwf	_ms30WaitedFlag^0,c
  1339  00260E                     l335:
  1340  00260E  0012               	return		;funcret
  1341  002610                     __end_of_init:
  1342                           	callstack 0
  1343                           
  1344 ;; *************** function _InitLCD *****************
  1345 ;; Defined at:
  1346 ;;		line 12 in file "lcd.c"
  1347 ;; Parameters:    Size  Location     Type
  1348 ;;		None
  1349 ;; Auto vars:     Size  Location     Type
  1350 ;;		None
  1351 ;; Return value:  Size  Location     Type
  1352 ;;                  1    wreg      void 
  1353 ;; Registers used:
  1354 ;;		wreg, status,2, status,0, cstack
  1355 ;; Tracked objects:
  1356 ;;		On entry : 0/0
  1357 ;;		On exit  : 0/0
  1358 ;;		Unchanged: 0/0
  1359 ;; Data sizes:     COMRAM   BANK0   BANK1   BANK2   BANK3   BANK4   BANK5   BANK6   BANK7   BANK8   BANK9  BANK10  BANK1
      +1  BANK12  BANK13  BANK14  BANK15
  1360 ;;      Params:         0       0       0       0       0       0       0       0       0       0       0       0       
      +0       0       0       0       0
  1361 ;;      Locals:         0       0       0       0       0       0       0       0       0       0       0       0       
      +0       0       0       0       0
  1362 ;;      Temps:          2       0       0       0       0       0       0       0       0       0       0       0       
      +0       0       0       0       0
  1363 ;;      Totals:         2       0       0       0       0       0       0       0       0       0       0       0       
      +0       0       0       0       0
  1364 ;;Total ram usage:        2 bytes
  1365 ;; Hardware stack levels used:    1
  1366 ;; Hardware stack levels required when called:    7
  1367 ;; This function calls:
  1368 ;;		_LcdClear
  1369 ;;		_LcdCmd
  1370 ;;		_Pulse
  1371 ;; This function is called by:
  1372 ;;		_init
  1373 ;;		_init_CDM_mode
  1374 ;; This function uses a non-reentrant model
  1375 ;;
  1376                           
  1377                           	psect	text7
  1378  0027A2                     __ptext7:
  1379                           	callstack 0
  1380  0027A2                     _InitLCD:
  1381                           	callstack 22
  1382  0027A2                     
  1383                           ;lcd.c: 13:     _delay((unsigned long)((20)*(40000000/4000.0)));
  1384  0027A2  0E02               	movlw	2
  1385  0027A4  6E37               	movwf	(??_InitLCD+1)^0,c
  1386  0027A6  0E04               	movlw	4
  1387  0027A8  6E36               	movwf	??_InitLCD^0,c
  1388  0027AA  0EBA               	movlw	186
  1389  0027AC                     u8047:
  1390  0027AC  2EE8               	decfsz	wreg,f,c
  1391  0027AE  D7FE               	bra	u8047
  1392  0027B0  2E36               	decfsz	??_InitLCD^0,f,c
  1393  0027B2  D7FC               	bra	u8047
  1394  0027B4  2E37               	decfsz	(??_InitLCD+1)^0,f,c
  1395  0027B6  D7FA               	bra	u8047
  1396  0027B8  D000               	nop2	
  1397  0027BA                     
  1398                           ;lcd.c: 14:     PORTD = 0x30;
  1399  0027BA  0E30               	movlw	48
  1400  0027BC  6E83               	movwf	131,c	;volatile
  1401  0027BE                     
  1402                           ;lcd.c: 15:     Pulse();
  1403  0027BE  EC8C  F015         	call	_Pulse	;wreg free
  1404  0027C2                     
  1405                           ;lcd.c: 17:     _delay((unsigned long)((6)*(40000000/4000.0)));
  1406  0027C2  0E4E               	movlw	78
  1407  0027C4  6E36               	movwf	??_InitLCD^0,c
  1408  0027C6  0EEB               	movlw	235
  1409  0027C8                     u8057:
  1410  0027C8  2EE8               	decfsz	wreg,f,c
  1411  0027CA  D7FE               	bra	u8057
  1412  0027CC  2E36               	decfsz	??_InitLCD^0,f,c
  1413  0027CE  D7FC               	bra	u8057
  1414  0027D0  F000               	nop	
  1415  0027D2                     
  1416                           ;lcd.c: 18:     PORTD = 0x30;
  1417  0027D2  0E30               	movlw	48
  1418  0027D4  6E83               	movwf	131,c	;volatile
  1419                           
  1420                           ;lcd.c: 19:     Pulse();
  1421  0027D6  EC8C  F015         	call	_Pulse	;wreg free
  1422  0027DA                     
  1423                           ;lcd.c: 21:     _delay((unsigned long)((300)*(40000000/4000000.0)));
  1424  0027DA  0E04               	movlw	4
  1425  0027DC  6E36               	movwf	??_InitLCD^0,c
  1426  0027DE  0EE4               	movlw	228
  1427  0027E0                     u8067:
  1428  0027E0  2EE8               	decfsz	wreg,f,c
  1429  0027E2  D7FE               	bra	u8067
  1430  0027E4  2E36               	decfsz	??_InitLCD^0,f,c
  1431  0027E6  D7FC               	bra	u8067
  1432  0027E8  D000               	nop2	
  1433  0027EA                     
  1434                           ;lcd.c: 22:     PORTD = 0x30;
  1435  0027EA  0E30               	movlw	48
  1436  0027EC  6E83               	movwf	131,c	;volatile
  1437  0027EE                     
  1438                           ;lcd.c: 23:     Pulse();
  1439  0027EE  EC8C  F015         	call	_Pulse	;wreg free
  1440  0027F2                     
  1441                           ;lcd.c: 25:     _delay((unsigned long)((2)*(40000000/4000.0)));
  1442  0027F2  0E1A               	movlw	26
  1443  0027F4  6E36               	movwf	??_InitLCD^0,c
  1444  0027F6  0EF8               	movlw	248
  1445  0027F8                     u8077:
  1446  0027F8  2EE8               	decfsz	wreg,f,c
  1447  0027FA  D7FE               	bra	u8077
  1448  0027FC  2E36               	decfsz	??_InitLCD^0,f,c
  1449  0027FE  D7FC               	bra	u8077
  1450  002800  D000               	nop2	
  1451                           
  1452                           ;lcd.c: 26:     PORTD = 0x20;
  1453  002802  0E20               	movlw	32
  1454  002804  6E83               	movwf	131,c	;volatile
  1455  002806                     
  1456                           ;lcd.c: 27:     Pulse();
  1457  002806  EC8C  F015         	call	_Pulse	;wreg free
  1458  00280A                     
  1459                           ;lcd.c: 29:     LcdCmd(0x2C);
  1460  00280A  0E2C               	movlw	44
  1461  00280C  EC0B  F015         	call	_LcdCmd
  1462  002810                     
  1463                           ;lcd.c: 30:     LcdCmd(0x0C);
  1464  002810  0E0C               	movlw	12
  1465  002812  EC0B  F015         	call	_LcdCmd
  1466  002816                     
  1467                           ;lcd.c: 31:     LcdClear();
  1468  002816  EC7C  F015         	call	_LcdClear	;wreg free
  1469  00281A  0012               	return		;funcret
  1470  00281C                     __end_of_InitLCD:
  1471                           	callstack 0
  1472                           
  1473 ;; *************** function _LcdClear *****************
  1474 ;; Defined at:
  1475 ;;		line 77 in file "lcd.c"
  1476 ;; Parameters:    Size  Location     Type
  1477 ;;		None
  1478 ;; Auto vars:     Size  Location     Type
  1479 ;;		None
  1480 ;; Return value:  Size  Location     Type
  1481 ;;                  1    wreg      void 
  1482 ;; Registers used:
  1483 ;;		wreg, status,2, status,0, cstack
  1484 ;; Tracked objects:
  1485 ;;		On entry : 0/0
  1486 ;;		On exit  : 0/0
  1487 ;;		Unchanged: 0/0
  1488 ;; Data sizes:     COMRAM   BANK0   BANK1   BANK2   BANK3   BANK4   BANK5   BANK6   BANK7   BANK8   BANK9  BANK10  BANK1
      +1  BANK12  BANK13  BANK14  BANK15
  1489 ;;      Params:         0       0       0       0       0       0       0       0       0       0       0       0       
      +0       0       0       0       0
  1490 ;;      Locals:         0       0       0       0       0       0       0       0       0       0       0       0       
      +0       0       0       0       0
  1491 ;;      Temps:          2       0       0       0       0       0       0       0       0       0       0       0       
      +0       0       0       0       0
  1492 ;;      Totals:         2       0       0       0       0       0       0       0       0       0       0       0       
      +0       0       0       0       0
  1493 ;;Total ram usage:        2 bytes
  1494 ;; Hardware stack levels used:    1
  1495 ;; Hardware stack levels required when called:    6
  1496 ;; This function calls:
  1497 ;;		_LcdCmd
  1498 ;; This function is called by:
  1499 ;;		_InitLCD
  1500 ;;		_init_CDM_mode
  1501 ;; This function uses a non-reentrant model
  1502 ;;
  1503                           
  1504                           	psect	text8
  1505  002AF8                     __ptext8:
  1506                           	callstack 0
  1507  002AF8                     _LcdClear:
  1508                           	callstack 23
  1509  002AF8                     
  1510                           ;lcd.c: 78:     LcdCmd(0x01);
  1511  002AF8  0E01               	movlw	1
  1512  002AFA  EC0B  F015         	call	_LcdCmd
  1513  002AFE                     
  1514                           ;lcd.c: 79:     _delay((unsigned long)((30)*(40000000/4000.0)));
  1515  002AFE  0E02               	movlw	2
  1516  002B00  6E35               	movwf	(??_LcdClear+1)^0,c
  1517  002B02  0E86               	movlw	134
  1518  002B04  6E34               	movwf	??_LcdClear^0,c
  1519  002B06  0E99               	movlw	153
  1520  002B08                     u8087:
  1521  002B08  2EE8               	decfsz	wreg,f,c
  1522  002B0A  D7FE               	bra	u8087
  1523  002B0C  2E34               	decfsz	??_LcdClear^0,f,c
  1524  002B0E  D7FC               	bra	u8087
  1525  002B10  2E35               	decfsz	(??_LcdClear+1)^0,f,c
  1526  002B12  D7FA               	bra	u8087
  1527  002B14  F000               	nop	
  1528  002B16  0012               	return		;funcret
  1529  002B18                     __end_of_LcdClear:
  1530                           	callstack 0
  1531                           
  1532 ;; *************** function _TSM *****************
  1533 ;; Defined at:
  1534 ;;		line 914 in file "the3.c"
  1535 ;; Parameters:    Size  Location     Type
  1536 ;;		None
  1537 ;; Auto vars:     Size  Location     Type
  1538 ;;  i               2   26[COMRAM] int 
  1539 ;;  i               2   30[COMRAM] int 
  1540 ;;  i               2   28[COMRAM] int 
  1541 ;;  i               2   24[COMRAM] int 
  1542 ;;  temp            1   32[COMRAM] unsigned char 
  1543 ;; Return value:  Size  Location     Type
  1544 ;;                  1    wreg      void 
  1545 ;; Registers used:
  1546 ;;		wreg, fsr1l, fsr1h, fsr2l, fsr2h, status,2, status,0, cstack
  1547 ;; Tracked objects:
  1548 ;;		On entry : 0/0
  1549 ;;		On exit  : 0/0
  1550 ;;		Unchanged: 0/0
  1551 ;; Data sizes:     COMRAM   BANK0   BANK1   BANK2   BANK3   BANK4   BANK5   BANK6   BANK7   BANK8   BANK9  BANK10  BANK1
      +1  BANK12  BANK13  BANK14  BANK15
  1552 ;;      Params:         0       0       0       0       0       0       0       0       0       0       0       0       
      +0       0       0       0       0
  1553 ;;      Locals:         9       0       0       0       0       0       0       0       0       0       0       0       
      +0       0       0       0       0
  1554 ;;      Temps:          2       0       0       0       0       0       0       0       0       0       0       0       
      +0       0       0       0       0
  1555 ;;      Totals:        11       0       0       0       0       0       0       0       0       0       0       0       
      +0       0       0       0       0
  1556 ;;Total ram usage:       11 bytes
  1557 ;; Hardware stack levels used:    1
  1558 ;; Hardware stack levels required when called:    6
  1559 ;; This function calls:
  1560 ;;		_LcdCmd
  1561 ;;		_LcdData
  1562 ;;		_leftRotate
  1563 ;;		_leftRotateArray
  1564 ;;		_stopInput
  1565 ;; This function is called by:
  1566 ;;		_main
  1567 ;; This function uses a non-reentrant model
  1568 ;;
  1569                           
  1570                           	psect	text9
  1571  001AF6                     __ptext9:
  1572                           	callstack 0
  1573  001AF6                     _TSM:
  1574                           	callstack 24
  1575  001AF6                     
  1576                           ;the3.c: 916:   stopInput();
  1577  001AF6  EC37  F015         	call	_stopInput	;wreg free
  1578  001AFA                     
  1579                           ;the3.c: 917:   LcdCmd(0x0C);
  1580  001AFA  0E0C               	movlw	12
  1581  001AFC  EC0B  F015         	call	_LcdCmd
  1582  001B00                     
  1583                           ;the3.c: 919:   LcdCmd(0x80);
  1584  001B00  0E80               	movlw	128
  1585  001B02  EC0B  F015         	call	_LcdCmd
  1586  001B06                     
  1587                           ;the3.c: 920:   LcdData(' ');
  1588  001B06  0E20               	movlw	32
  1589  001B08  ECF5  F014         	call	_LcdData
  1590  001B0C                     
  1591                           ;the3.c: 921:   LcdData(' ');
  1592  001B0C  0E20               	movlw	32
  1593  001B0E  ECF5  F014         	call	_LcdData
  1594  001B12                     
  1595                           ;the3.c: 922:   LcdData(' ');
  1596  001B12  0E20               	movlw	32
  1597  001B14  ECF5  F014         	call	_LcdData
  1598  001B18                     
  1599                           ;the3.c: 923:   LcdData('f');
  1600  001B18  0E66               	movlw	102
  1601  001B1A  ECF5  F014         	call	_LcdData
  1602  001B1E                     
  1603                           ;the3.c: 924:   LcdData('i');
  1604  001B1E  0E69               	movlw	105
  1605  001B20  ECF5  F014         	call	_LcdData
  1606  001B24                     
  1607                           ;the3.c: 925:   LcdData('n');
  1608  001B24  0E6E               	movlw	110
  1609  001B26  ECF5  F014         	call	_LcdData
  1610  001B2A                     
  1611                           ;the3.c: 926:   LcdData('i');
  1612  001B2A  0E69               	movlw	105
  1613  001B2C  ECF5  F014         	call	_LcdData
  1614  001B30                     
  1615                           ;the3.c: 927:   LcdData('s');
  1616  001B30  0E73               	movlw	115
  1617  001B32  ECF5  F014         	call	_LcdData
  1618  001B36                     
  1619                           ;the3.c: 928:   LcdData('h');
  1620  001B36  0E68               	movlw	104
  1621  001B38  ECF5  F014         	call	_LcdData
  1622  001B3C                     
  1623                           ;the3.c: 929:   LcdData('e');
  1624  001B3C  0E65               	movlw	101
  1625  001B3E  ECF5  F014         	call	_LcdData
  1626  001B42                     
  1627                           ;the3.c: 930:   LcdData('d');
  1628  001B42  0E64               	movlw	100
  1629  001B44  ECF5  F014         	call	_LcdData
  1630  001B48                     
  1631                           ;the3.c: 931:   LcdData(' ');
  1632  001B48  0E20               	movlw	32
  1633  001B4A  ECF5  F014         	call	_LcdData
  1634  001B4E                     
  1635                           ;the3.c: 932:   LcdData(' ');
  1636  001B4E  0E20               	movlw	32
  1637  001B50  ECF5  F014         	call	_LcdData
  1638  001B54                     
  1639                           ;the3.c: 933:   LcdData(' ');
  1640  001B54  0E20               	movlw	32
  1641  001B56  ECF5  F014         	call	_LcdData
  1642  001B5A                     
  1643                           ;the3.c: 934:   LcdData(' ');
  1644  001B5A  0E20               	movlw	32
  1645  001B5C  ECF5  F014         	call	_LcdData
  1646  001B60                     
  1647                           ;the3.c: 935:   LcdData(' ');
  1648  001B60  0E20               	movlw	32
  1649  001B62  ECF5  F014         	call	_LcdData
  1650  001B66                     
  1651                           ;the3.c: 937:   uint8_t temp = 0xC0;
  1652  001B66  0EC0               	movlw	192
  1653  001B68  6E47               	movwf	TSM@temp^0,c
  1654  001B6A                     
  1655                           ;the3.c: 938:   for (int i = 0; i < 16; i++)
  1656  001B6A  0E00               	movlw	0
  1657  001B6C  6E40               	movwf	(TSM@i+1)^0,c
  1658  001B6E  0E00               	movlw	0
  1659  001B70  6E3F               	movwf	TSM@i^0,c
  1660  001B72                     l4924:
  1661                           
  1662                           ;the3.c: 939:   {;the3.c: 940:     LcdCmd(temp);
  1663  001B72  5047               	movf	TSM@temp^0,w,c
  1664  001B74  EC0B  F015         	call	_LcdCmd
  1665  001B78                     
  1666                           ;the3.c: 941:     temp += 1;
  1667  001B78  2A47               	incf	TSM@temp^0,f,c
  1668  001B7A                     
  1669                           ;the3.c: 942:     LcdData(lcdChars[i]);
  1670  001B7A  0EA6               	movlw	low _lcdChars
  1671  001B7C  243F               	addwf	TSM@i^0,w,c
  1672  001B7E  6ED9               	movwf	fsr2l,c
  1673  001B80  0E00               	movlw	high _lcdChars
  1674  001B82  2040               	addwfc	(TSM@i+1)^0,w,c
  1675  001B84  6EDA               	movwf	fsr2h,c
  1676  001B86  50DF               	movf	indf2,w,c
  1677  001B88  ECF5  F014         	call	_LcdData
  1678  001B8C                     
  1679                           ;the3.c: 943:   }
  1680  001B8C  4A3F               	infsnz	TSM@i^0,f,c
  1681  001B8E  2A40               	incf	(TSM@i+1)^0,f,c
  1682  001B90  BE40               	btfsc	(TSM@i+1)^0,7,c
  1683  001B92  EFD4  F00D         	goto	u7701
  1684  001B96  5040               	movf	(TSM@i+1)^0,w,c
  1685  001B98  E109               	bnz	u7700
  1686  001B9A  0E10               	movlw	16
  1687  001B9C  5C3F               	subwf	TSM@i^0,w,c
  1688  001B9E  A0D8               	btfss	status,0,c
  1689  001BA0  EFD4  F00D         	goto	u7701
  1690  001BA4  EFD6  F00D         	goto	u7700
  1691  001BA8                     u7701:
  1692  001BA8  EFB9  F00D         	goto	l4924
  1693  001BAC                     u7700:
  1694  001BAC                     
  1695                           ;the3.c: 944:   temp = 0xC0;
  1696  001BAC  0EC0               	movlw	192
  1697  001BAE  6E47               	movwf	TSM@temp^0,c
  1698                           
  1699                           ;the3.c: 945:   for (int i = 0; i < 16; i++)
  1700  001BB0  0E00               	movlw	0
  1701  001BB2  6E44               	movwf	(TSM@i_764+1)^0,c
  1702  001BB4  0E00               	movlw	0
  1703  001BB6  6E43               	movwf	TSM@i_764^0,c
  1704  001BB8                     l4940:
  1705                           
  1706                           ;the3.c: 946:   {;the3.c: 947:     LcdCmd(temp);
  1707  001BB8  5047               	movf	TSM@temp^0,w,c
  1708  001BBA  EC0B  F015         	call	_LcdCmd
  1709  001BBE                     
  1710                           ;the3.c: 948:     temp += 1;
  1711  001BBE  2A47               	incf	TSM@temp^0,f,c
  1712  001BC0                     
  1713                           ;the3.c: 949:     if (customArrayInfo[i] != -1)
  1714  001BC0  90D8               	bcf	status,0,c
  1715  001BC2  3443               	rlcf	TSM@i_764^0,w,c
  1716  001BC4  6ED9               	movwf	fsr2l,c
  1717  001BC6  3444               	rlcf	(TSM@i_764+1)^0,w,c
  1718  001BC8  6EDA               	movwf	fsr2h,c
  1719  001BCA  0E86               	movlw	low _customArrayInfo
  1720  001BCC  26D9               	addwf	fsr2l,f,c
  1721  001BCE  0E00               	movlw	high _customArrayInfo
  1722  001BD0  22DA               	addwfc	fsr2h,f,c
  1723  001BD2  28DE               	incf	postinc2,w,c
  1724  001BD4  E108               	bnz	u7710
  1725  001BD6  28DE               	incf	postinc2,w,c
  1726  001BD8  B4D8               	btfsc	status,2,c
  1727  001BDA  EFF1  F00D         	goto	u7711
  1728  001BDE  EFF3  F00D         	goto	u7710
  1729  001BE2                     u7711:
  1730  001BE2  EFFF  F00D         	goto	l4948
  1731  001BE6                     u7710:
  1732  001BE6                     
  1733                           ;the3.c: 950:     {;the3.c: 951:       LcdData(customArrayInfo[i]);
  1734  001BE6  90D8               	bcf	status,0,c
  1735  001BE8  3443               	rlcf	TSM@i_764^0,w,c
  1736  001BEA  6ED9               	movwf	fsr2l,c
  1737  001BEC  3444               	rlcf	(TSM@i_764+1)^0,w,c
  1738  001BEE  6EDA               	movwf	fsr2h,c
  1739  001BF0  0E86               	movlw	low _customArrayInfo
  1740  001BF2  26D9               	addwf	fsr2l,f,c
  1741  001BF4  0E00               	movlw	high _customArrayInfo
  1742  001BF6  22DA               	addwfc	fsr2h,f,c
  1743  001BF8  50DF               	movf	indf2,w,c
  1744  001BFA  ECF5  F014         	call	_LcdData
  1745  001BFE                     l4948:
  1746                           
  1747                           ;the3.c: 953:   }
  1748  001BFE  4A43               	infsnz	TSM@i_764^0,f,c
  1749  001C00  2A44               	incf	(TSM@i_764+1)^0,f,c
  1750  001C02  BE44               	btfsc	(TSM@i_764+1)^0,7,c
  1751  001C04  EF0D  F00E         	goto	u7721
  1752  001C08  5044               	movf	(TSM@i_764+1)^0,w,c
  1753  001C0A  E109               	bnz	u7720
  1754  001C0C  0E10               	movlw	16
  1755  001C0E  5C43               	subwf	TSM@i_764^0,w,c
  1756  001C10  A0D8               	btfss	status,0,c
  1757  001C12  EF0D  F00E         	goto	u7721
  1758  001C16  EF0F  F00E         	goto	u7720
  1759  001C1A                     u7721:
  1760  001C1A  EFDC  F00D         	goto	l4940
  1761  001C1E                     u7720:
  1762  001C1E                     
  1763                           ;the3.c: 955:   if (ms500WaitedFlag)
  1764  001C1E  501C               	movf	_ms500WaitedFlag^0,w,c
  1765  001C20  B4D8               	btfsc	status,2,c
  1766  001C22  EF15  F00E         	goto	u7731
  1767  001C26  EF17  F00E         	goto	u7730
  1768  001C2A                     u7731:
  1769  001C2A  EF81  F00E         	goto	l515
  1770  001C2E                     u7730:
  1771  001C2E                     
  1772                           ;the3.c: 956:   {;the3.c: 957:     ms500WaitedFlag = 0;
  1773  001C2E  0E00               	movlw	0
  1774  001C30  6E1C               	movwf	_ms500WaitedFlag^0,c
  1775                           
  1776                           ;the3.c: 958:     temp = 0xC0;
  1777  001C32  0EC0               	movlw	192
  1778  001C34  6E47               	movwf	TSM@temp^0,c
  1779  001C36                     
  1780                           ;the3.c: 959:     leftRotate(lcdChars);
  1781  001C36  0EA6               	movlw	low _lcdChars
  1782  001C38  6E33               	movwf	leftRotate@lcdChars^0,c
  1783  001C3A  0E00               	movlw	high _lcdChars
  1784  001C3C  6E34               	movwf	(leftRotate@lcdChars+1)^0,c
  1785  001C3E  EC45  F014         	call	_leftRotate	;wreg free
  1786  001C42                     
  1787                           ;the3.c: 960:     leftRotateArray(customArrayInfo);
  1788  001C42  0E86               	movlw	low _customArrayInfo
  1789  001C44  6E33               	movwf	leftRotateArray@customArrayInfo^0,c
  1790  001C46  0E00               	movlw	high _customArrayInfo
  1791  001C48  6E34               	movwf	(leftRotateArray@customArrayInfo+1)^0,c
  1792  001C4A  EC77  F012         	call	_leftRotateArray	;wreg free
  1793                           
  1794                           ;the3.c: 961:     for (int i = 0; i < 16; i++)
  1795  001C4E  0E00               	movlw	0
  1796  001C50  6E46               	movwf	(TSM@i_765+1)^0,c
  1797  001C52  0E00               	movlw	0
  1798  001C54  6E45               	movwf	TSM@i_765^0,c
  1799  001C56                     l4964:
  1800                           
  1801                           ;the3.c: 962:     {;the3.c: 963:       LcdCmd(temp);
  1802  001C56  5047               	movf	TSM@temp^0,w,c
  1803  001C58  EC0B  F015         	call	_LcdCmd
  1804  001C5C                     
  1805                           ;the3.c: 964:       temp += 1;
  1806  001C5C  2A47               	incf	TSM@temp^0,f,c
  1807  001C5E                     
  1808                           ;the3.c: 965:       if (customArrayInfo[i] != -1)
  1809  001C5E  90D8               	bcf	status,0,c
  1810  001C60  3445               	rlcf	TSM@i_765^0,w,c
  1811  001C62  6ED9               	movwf	fsr2l,c
  1812  001C64  3446               	rlcf	(TSM@i_765+1)^0,w,c
  1813  001C66  6EDA               	movwf	fsr2h,c
  1814  001C68  0E86               	movlw	low _customArrayInfo
  1815  001C6A  26D9               	addwf	fsr2l,f,c
  1816  001C6C  0E00               	movlw	high _customArrayInfo
  1817  001C6E  22DA               	addwfc	fsr2h,f,c
  1818  001C70  28DE               	incf	postinc2,w,c
  1819  001C72  E108               	bnz	u7740
  1820  001C74  28DE               	incf	postinc2,w,c
  1821  001C76  B4D8               	btfsc	status,2,c
  1822  001C78  EF40  F00E         	goto	u7741
  1823  001C7C  EF42  F00E         	goto	u7740
  1824  001C80                     u7741:
  1825  001C80  EF4E  F00E         	goto	l4972
  1826  001C84                     u7740:
  1827  001C84                     
  1828                           ;the3.c: 966:       {;the3.c: 967:         LcdData(customArrayInfo[i]);
  1829  001C84  90D8               	bcf	status,0,c
  1830  001C86  3445               	rlcf	TSM@i_765^0,w,c
  1831  001C88  6ED9               	movwf	fsr2l,c
  1832  001C8A  3446               	rlcf	(TSM@i_765+1)^0,w,c
  1833  001C8C  6EDA               	movwf	fsr2h,c
  1834  001C8E  0E86               	movlw	low _customArrayInfo
  1835  001C90  26D9               	addwf	fsr2l,f,c
  1836  001C92  0E00               	movlw	high _customArrayInfo
  1837  001C94  22DA               	addwfc	fsr2h,f,c
  1838  001C96  50DF               	movf	indf2,w,c
  1839  001C98  ECF5  F014         	call	_LcdData
  1840  001C9C                     l4972:
  1841                           
  1842                           ;the3.c: 969:     }
  1843  001C9C  4A45               	infsnz	TSM@i_765^0,f,c
  1844  001C9E  2A46               	incf	(TSM@i_765+1)^0,f,c
  1845  001CA0  BE46               	btfsc	(TSM@i_765+1)^0,7,c
  1846  001CA2  EF5C  F00E         	goto	u7751
  1847  001CA6  5046               	movf	(TSM@i_765+1)^0,w,c
  1848  001CA8  E109               	bnz	u7750
  1849  001CAA  0E10               	movlw	16
  1850  001CAC  5C45               	subwf	TSM@i_765^0,w,c
  1851  001CAE  A0D8               	btfss	status,0,c
  1852  001CB0  EF5C  F00E         	goto	u7751
  1853  001CB4  EF5E  F00E         	goto	u7750
  1854  001CB8                     u7751:
  1855  001CB8  EF2B  F00E         	goto	l4964
  1856  001CBC                     u7750:
  1857  001CBC                     
  1858                           ;the3.c: 970:     temp = 0xc0;
  1859  001CBC  0EC0               	movlw	192
  1860  001CBE  6E47               	movwf	TSM@temp^0,c
  1861                           
  1862                           ;the3.c: 971:     for (int i = 0; i < 16; i++)
  1863  001CC0  0E00               	movlw	0
  1864  001CC2  6E42               	movwf	(TSM@i_766+1)^0,c
  1865  001CC4  0E00               	movlw	0
  1866  001CC6  6E41               	movwf	TSM@i_766^0,c
  1867  001CC8                     l4982:
  1868                           
  1869                           ;the3.c: 972:     {;the3.c: 973:       LcdCmd(temp);
  1870  001CC8  5047               	movf	TSM@temp^0,w,c
  1871  001CCA  EC0B  F015         	call	_LcdCmd
  1872  001CCE                     
  1873                           ;the3.c: 974:       temp += 1;
  1874  001CCE  2A47               	incf	TSM@temp^0,f,c
  1875  001CD0                     
  1876                           ;the3.c: 975:       LcdData(lcdChars[i]);
  1877  001CD0  0EA6               	movlw	low _lcdChars
  1878  001CD2  2441               	addwf	TSM@i_766^0,w,c
  1879  001CD4  6ED9               	movwf	fsr2l,c
  1880  001CD6  0E00               	movlw	high _lcdChars
  1881  001CD8  2042               	addwfc	(TSM@i_766+1)^0,w,c
  1882  001CDA  6EDA               	movwf	fsr2h,c
  1883  001CDC  50DF               	movf	indf2,w,c
  1884  001CDE  ECF5  F014         	call	_LcdData
  1885  001CE2                     
  1886                           ;the3.c: 976:     }
  1887  001CE2  4A41               	infsnz	TSM@i_766^0,f,c
  1888  001CE4  2A42               	incf	(TSM@i_766+1)^0,f,c
  1889  001CE6  BE42               	btfsc	(TSM@i_766+1)^0,7,c
  1890  001CE8  EF7F  F00E         	goto	u7761
  1891  001CEC  5042               	movf	(TSM@i_766+1)^0,w,c
  1892  001CEE  E109               	bnz	u7760
  1893  001CF0  0E10               	movlw	16
  1894  001CF2  5C41               	subwf	TSM@i_766^0,w,c
  1895  001CF4  A0D8               	btfss	status,0,c
  1896  001CF6  EF7F  F00E         	goto	u7761
  1897  001CFA  EF81  F00E         	goto	u7760
  1898  001CFE                     u7761:
  1899  001CFE  EF64  F00E         	goto	l4982
  1900  001D02                     u7760:
  1901  001D02                     l515:
  1902  001D02  0012               	return		;funcret
  1903  001D04                     __end_of_TSM:
  1904                           	callstack 0
  1905                           
  1906 ;; *************** function _stopInput *****************
  1907 ;; Defined at:
  1908 ;;		line 429 in file "the3.c"
  1909 ;; Parameters:    Size  Location     Type
  1910 ;;		None
  1911 ;; Auto vars:     Size  Location     Type
  1912 ;;		None
  1913 ;; Return value:  Size  Location     Type
  1914 ;;                  1    wreg      void 
  1915 ;; Registers used:
  1916 ;;		wreg, status,2
  1917 ;; Tracked objects:
  1918 ;;		On entry : 0/0
  1919 ;;		On exit  : 0/0
  1920 ;;		Unchanged: 0/0
  1921 ;; Data sizes:     COMRAM   BANK0   BANK1   BANK2   BANK3   BANK4   BANK5   BANK6   BANK7   BANK8   BANK9  BANK10  BANK1
      +1  BANK12  BANK13  BANK14  BANK15
  1922 ;;      Params:         0       0       0       0       0       0       0       0       0       0       0       0       
      +0       0       0       0       0
  1923 ;;      Locals:         0       0       0       0       0       0       0       0       0       0       0       0       
      +0       0       0       0       0
  1924 ;;      Temps:          0       0       0       0       0       0       0       0       0       0       0       0       
      +0       0       0       0       0
  1925 ;;      Totals:         0       0       0       0       0       0       0       0       0       0       0       0       
      +0       0       0       0       0
  1926 ;;Total ram usage:        0 bytes
  1927 ;; Hardware stack levels used:    1
  1928 ;; Hardware stack levels required when called:    4
  1929 ;; This function calls:
  1930 ;;		Nothing
  1931 ;; This function is called by:
  1932 ;;		_TSM
  1933 ;; This function uses a non-reentrant model
  1934 ;;
  1935                           
  1936                           	psect	text10
  1937  002A6E                     __ptext10:
  1938                           	callstack 0
  1939  002A6E                     _stopInput:
  1940                           	callstack 25
  1941  002A6E                     
  1942                           ;the3.c: 431:   TRISA = 0x00;
  1943  002A6E  0E00               	movlw	0
  1944  002A70  6E92               	movwf	146,c	;volatile
  1945                           
  1946                           ;the3.c: 432:   TRISB = 0x00;
  1947  002A72  0E00               	movlw	0
  1948  002A74  6E93               	movwf	147,c	;volatile
  1949                           
  1950                           ;the3.c: 433:   TRISC = 0x00;
  1951  002A76  0E00               	movlw	0
  1952  002A78  6E94               	movwf	148,c	;volatile
  1953                           
  1954                           ;the3.c: 434:   TRISD = 0x00;
  1955  002A7A  0E00               	movlw	0
  1956  002A7C  6E95               	movwf	149,c	;volatile
  1957                           
  1958                           ;the3.c: 435:   TRISE = 0x00;
  1959  002A7E  0E00               	movlw	0
  1960  002A80  6E96               	movwf	150,c	;volatile
  1961                           
  1962                           ;the3.c: 436:   TRISF = 0x00;
  1963  002A82  0E00               	movlw	0
  1964  002A84  6E97               	movwf	151,c	;volatile
  1965                           
  1966                           ;the3.c: 437:   TRISG = 0x00;
  1967  002A86  0E00               	movlw	0
  1968  002A88  6E98               	movwf	152,c	;volatile
  1969                           
  1970                           ;the3.c: 438:   TRISH = 0x00;
  1971  002A8A  0E00               	movlw	0
  1972  002A8C  6E99               	movwf	153,c	;volatile
  1973                           
  1974                           ;the3.c: 439:   TRISJ = 0x00;
  1975  002A8E  0E00               	movlw	0
  1976  002A90  6E9A               	movwf	154,c	;volatile
  1977  002A92  0012               	return		;funcret
  1978  002A94                     __end_of_stopInput:
  1979                           	callstack 0
  1980                           
  1981 ;; *************** function _leftRotateArray *****************
  1982 ;; Defined at:
  1983 ;;		line 154 in file "the3.c"
  1984 ;; Parameters:    Size  Location     Type
  1985 ;;  customArrayI    2   12[COMRAM] PTR int 
  1986 ;;		 -> customArrayInfo(32), 
  1987 ;; Auto vars:     Size  Location     Type
  1988 ;;  j               2   20[COMRAM] int 
  1989 ;;  temp            2   18[COMRAM] int 
  1990 ;; Return value:  Size  Location     Type
  1991 ;;                  2   12[COMRAM] PTR int 
  1992 ;; Registers used:
  1993 ;;		wreg, fsr1l, fsr1h, fsr2l, fsr2h, status,2, status,0
  1994 ;; Tracked objects:
  1995 ;;		On entry : 0/0
  1996 ;;		On exit  : 0/0
  1997 ;;		Unchanged: 0/0
  1998 ;; Data sizes:     COMRAM   BANK0   BANK1   BANK2   BANK3   BANK4   BANK5   BANK6   BANK7   BANK8   BANK9  BANK10  BANK1
      +1  BANK12  BANK13  BANK14  BANK15
  1999 ;;      Params:         2       0       0       0       0       0       0       0       0       0       0       0       
      +0       0       0       0       0
  2000 ;;      Locals:         4       0       0       0       0       0       0       0       0       0       0       0       
      +0       0       0       0       0
  2001 ;;      Temps:          4       0       0       0       0       0       0       0       0       0       0       0       
      +0       0       0       0       0
  2002 ;;      Totals:        10       0       0       0       0       0       0       0       0       0       0       0       
      +0       0       0       0       0
  2003 ;;Total ram usage:       10 bytes
  2004 ;; Hardware stack levels used:    1
  2005 ;; Hardware stack levels required when called:    4
  2006 ;; This function calls:
  2007 ;;		Nothing
  2008 ;; This function is called by:
  2009 ;;		_TSM
  2010 ;; This function uses a non-reentrant model
  2011 ;;
  2012                           
  2013                           	psect	text11
  2014  0024EE                     __ptext11:
  2015                           	callstack 0
  2016  0024EE                     _leftRotateArray:
  2017                           	callstack 25
  2018  0024EE                     
  2019                           ;the3.c: 154: int *leftRotateArray(int *customArrayInfo);the3.c: 155: {;the3.c: 156:   i
      +                          nt j;;the3.c: 157:   int temp;;the3.c: 159:   temp = customArrayInfo[0];
  2020  0024EE  C033  FFD9         	movff	leftRotateArray@customArrayInfo,fsr2l
  2021  0024F2  C034  FFDA         	movff	leftRotateArray@customArrayInfo+1,fsr2h
  2022  0024F6  CFDE F039          	movff	postinc2,leftRotateArray@temp
  2023  0024FA  CFDD F03A          	movff	postdec2,leftRotateArray@temp+1
  2024  0024FE                     
  2025                           ;the3.c: 160:   for (j = 0; j < 15; j++)
  2026  0024FE  0E00               	movlw	0
  2027  002500  6E3C               	movwf	(leftRotateArray@j+1)^0,c
  2028  002502  0E00               	movlw	0
  2029  002504  6E3B               	movwf	leftRotateArray@j^0,c
  2030  002506                     l3112:
  2031                           
  2032                           ;the3.c: 161:   {;the3.c: 163:     customArrayInfo[j] = customArrayInfo[j + 1];
  2033  002506  C03B  F035         	movff	leftRotateArray@j,??_leftRotateArray
  2034  00250A  C03C  F036         	movff	leftRotateArray@j+1,??_leftRotateArray+1
  2035  00250E  90D8               	bcf	status,0,c
  2036  002510  3635               	rlcf	??_leftRotateArray^0,f,c
  2037  002512  3636               	rlcf	(??_leftRotateArray+1)^0,f,c
  2038  002514  C033  F037         	movff	leftRotateArray@customArrayInfo,??_leftRotateArray+2
  2039  002518  C034  F038         	movff	leftRotateArray@customArrayInfo+1,??_leftRotateArray+3
  2040  00251C  5035               	movf	??_leftRotateArray^0,w,c
  2041  00251E  2637               	addwf	(??_leftRotateArray+2)^0,f,c
  2042  002520  5036               	movf	(??_leftRotateArray+1)^0,w,c
  2043  002522  2238               	addwfc	(??_leftRotateArray+3)^0,f,c
  2044  002524  0E02               	movlw	2
  2045  002526  2437               	addwf	(??_leftRotateArray+2)^0,w,c
  2046  002528  6ED9               	movwf	fsr2l,c
  2047  00252A  0E00               	movlw	0
  2048  00252C  2038               	addwfc	(??_leftRotateArray+3)^0,w,c
  2049  00252E  6EDA               	movwf	fsr2h,c
  2050  002530  90D8               	bcf	status,0,c
  2051  002532  343B               	rlcf	leftRotateArray@j^0,w,c
  2052  002534  6EE1               	movwf	fsr1l,c
  2053  002536  343C               	rlcf	(leftRotateArray@j+1)^0,w,c
  2054  002538  6EE2               	movwf	fsr1h,c
  2055  00253A  5033               	movf	leftRotateArray@customArrayInfo^0,w,c
  2056  00253C  26E1               	addwf	fsr1l,f,c
  2057  00253E  5034               	movf	(leftRotateArray@customArrayInfo+1)^0,w,c
  2058  002540  22E2               	addwfc	fsr1h,f,c
  2059  002542  CFDE FFE6          	movff	postinc2,postinc1
  2060  002546  CFDD FFE5          	movff	postdec2,postdec1
  2061  00254A                     
  2062                           ;the3.c: 164:   }
  2063  00254A  4A3B               	infsnz	leftRotateArray@j^0,f,c
  2064  00254C  2A3C               	incf	(leftRotateArray@j+1)^0,f,c
  2065  00254E  BE3C               	btfsc	(leftRotateArray@j+1)^0,7,c
  2066  002550  EFB3  F012         	goto	u3261
  2067  002554  503C               	movf	(leftRotateArray@j+1)^0,w,c
  2068  002556  E109               	bnz	u3260
  2069  002558  0E0F               	movlw	15
  2070  00255A  5C3B               	subwf	leftRotateArray@j^0,w,c
  2071  00255C  A0D8               	btfss	status,0,c
  2072  00255E  EFB3  F012         	goto	u3261
  2073  002562  EFB5  F012         	goto	u3260
  2074  002566                     u3261:
  2075  002566  EF83  F012         	goto	l3112
  2076  00256A                     u3260:
  2077  00256A                     
  2078                           ;the3.c: 166:   customArrayInfo[15] = temp;
  2079  00256A  EE20 F01E          	lfsr	2,30
  2080  00256E  5033               	movf	leftRotateArray@customArrayInfo^0,w,c
  2081  002570  26D9               	addwf	fsr2l,f,c
  2082  002572  5034               	movf	(leftRotateArray@customArrayInfo+1)^0,w,c
  2083  002574  22DA               	addwfc	fsr2h,f,c
  2084  002576  C039  FFDE         	movff	leftRotateArray@temp,postinc2
  2085  00257A  C03A  FFDD         	movff	leftRotateArray@temp+1,postdec2
  2086  00257E  0012               	return		;funcret
  2087  002580                     __end_of_leftRotateArray:
  2088                           	callstack 0
  2089                           
  2090 ;; *************** function _leftRotate *****************
  2091 ;; Defined at:
  2092 ;;		line 138 in file "the3.c"
  2093 ;; Parameters:    Size  Location     Type
  2094 ;;  lcdChars        2   12[COMRAM] PTR unsigned char 
  2095 ;;		 -> lcdChars(16), 
  2096 ;; Auto vars:     Size  Location     Type
  2097 ;;  j               2   17[COMRAM] int 
  2098 ;;  temp            1   16[COMRAM] unsigned char 
  2099 ;; Return value:  Size  Location     Type
  2100 ;;                  2   12[COMRAM] PTR unsigned char 
  2101 ;; Registers used:
  2102 ;;		wreg, fsr1l, fsr1h, fsr2l, fsr2h, status,2, status,0
  2103 ;; Tracked objects:
  2104 ;;		On entry : 0/0
  2105 ;;		On exit  : 0/0
  2106 ;;		Unchanged: 0/0
  2107 ;; Data sizes:     COMRAM   BANK0   BANK1   BANK2   BANK3   BANK4   BANK5   BANK6   BANK7   BANK8   BANK9  BANK10  BANK1
      +1  BANK12  BANK13  BANK14  BANK15
  2108 ;;      Params:         2       0       0       0       0       0       0       0       0       0       0       0       
      +0       0       0       0       0
  2109 ;;      Locals:         3       0       0       0       0       0       0       0       0       0       0       0       
      +0       0       0       0       0
  2110 ;;      Temps:          2       0       0       0       0       0       0       0       0       0       0       0       
      +0       0       0       0       0
  2111 ;;      Totals:         7       0       0       0       0       0       0       0       0       0       0       0       
      +0       0       0       0       0
  2112 ;;Total ram usage:        7 bytes
  2113 ;; Hardware stack levels used:    1
  2114 ;; Hardware stack levels required when called:    4
  2115 ;; This function calls:
  2116 ;;		Nothing
  2117 ;; This function is called by:
  2118 ;;		_TSM
  2119 ;; This function uses a non-reentrant model
  2120 ;;
  2121                           
  2122                           	psect	text12
  2123  00288A                     __ptext12:
  2124                           	callstack 0
  2125  00288A                     _leftRotate:
  2126                           	callstack 25
  2127  00288A                     
  2128                           ;the3.c: 138: char *leftRotate(char *lcdChars);the3.c: 139: {;the3.c: 140:   int j;;the3
      +                          .c: 141:   char temp;;the3.c: 143:   temp = lcdChars[0];
  2129  00288A  C033  FFD9         	movff	leftRotate@lcdChars,fsr2l
  2130  00288E  C034  FFDA         	movff	leftRotate@lcdChars+1,fsr2h
  2131  002892  50DF               	movf	indf2,w,c
  2132  002894  6E37               	movwf	leftRotate@temp^0,c
  2133  002896                     
  2134                           ;the3.c: 144:   for (j = 0; j < 15; j++)
  2135  002896  0E00               	movlw	0
  2136  002898  6E39               	movwf	(leftRotate@j+1)^0,c
  2137  00289A  0E00               	movlw	0
  2138  00289C  6E38               	movwf	leftRotate@j^0,c
  2139  00289E                     l3094:
  2140                           
  2141                           ;the3.c: 145:   {;the3.c: 147:     lcdChars[j] = lcdChars[j + 1];
  2142  00289E  5038               	movf	leftRotate@j^0,w,c
  2143  0028A0  2433               	addwf	leftRotate@lcdChars^0,w,c
  2144  0028A2  6E35               	movwf	??_leftRotate^0,c
  2145  0028A4  5039               	movf	(leftRotate@j+1)^0,w,c
  2146  0028A6  2034               	addwfc	(leftRotate@lcdChars+1)^0,w,c
  2147  0028A8  6E36               	movwf	(??_leftRotate+1)^0,c
  2148  0028AA  0E01               	movlw	1
  2149  0028AC  2435               	addwf	??_leftRotate^0,w,c
  2150  0028AE  6ED9               	movwf	fsr2l,c
  2151  0028B0  0E00               	movlw	0
  2152  0028B2  2036               	addwfc	(??_leftRotate+1)^0,w,c
  2153  0028B4  6EDA               	movwf	fsr2h,c
  2154  0028B6  5038               	movf	leftRotate@j^0,w,c
  2155  0028B8  2433               	addwf	leftRotate@lcdChars^0,w,c
  2156  0028BA  6EE1               	movwf	fsr1l,c
  2157  0028BC  5039               	movf	(leftRotate@j+1)^0,w,c
  2158  0028BE  2034               	addwfc	(leftRotate@lcdChars+1)^0,w,c
  2159  0028C0  6EE2               	movwf	fsr1h,c
  2160  0028C2  CFDF FFE7          	movff	indf2,indf1
  2161  0028C6                     
  2162                           ;the3.c: 148:   }
  2163  0028C6  4A38               	infsnz	leftRotate@j^0,f,c
  2164  0028C8  2A39               	incf	(leftRotate@j+1)^0,f,c
  2165  0028CA  BE39               	btfsc	(leftRotate@j+1)^0,7,c
  2166  0028CC  EF71  F014         	goto	u3251
  2167  0028D0  5039               	movf	(leftRotate@j+1)^0,w,c
  2168  0028D2  E109               	bnz	u3250
  2169  0028D4  0E0F               	movlw	15
  2170  0028D6  5C38               	subwf	leftRotate@j^0,w,c
  2171  0028D8  A0D8               	btfss	status,0,c
  2172  0028DA  EF71  F014         	goto	u3251
  2173  0028DE  EF73  F014         	goto	u3250
  2174  0028E2                     u3251:
  2175  0028E2  EF4F  F014         	goto	l3094
  2176  0028E6                     u3250:
  2177  0028E6                     
  2178                           ;the3.c: 150:   lcdChars[15] = temp;
  2179  0028E6  EE20 F00F          	lfsr	2,15
  2180  0028EA  5033               	movf	leftRotate@lcdChars^0,w,c
  2181  0028EC  26D9               	addwf	fsr2l,f,c
  2182  0028EE  5034               	movf	(leftRotate@lcdChars+1)^0,w,c
  2183  0028F0  22DA               	addwfc	fsr2h,f,c
  2184  0028F2  C037  FFDF         	movff	leftRotate@temp,indf2
  2185  0028F6  0012               	return		;funcret
  2186  0028F8                     __end_of_leftRotate:
  2187                           	callstack 0
  2188                           
  2189 ;; *************** function _TEMpressCheck *****************
  2190 ;; Defined at:
  2191 ;;		line 503 in file "the3.c"
  2192 ;; Parameters:    Size  Location     Type
  2193 ;;		None
  2194 ;; Auto vars:     Size  Location     Type
  2195 ;;		None
  2196 ;; Return value:  Size  Location     Type
  2197 ;;                  1    wreg      void 
  2198 ;; Registers used:
  2199 ;;		wreg, fsr1l, fsr1h, fsr2l, fsr2h, status,2, status,0, cstack
  2200 ;; Tracked objects:
  2201 ;;		On entry : 0/0
  2202 ;;		On exit  : 0/0
  2203 ;;		Unchanged: 0/0
  2204 ;; Data sizes:     COMRAM   BANK0   BANK1   BANK2   BANK3   BANK4   BANK5   BANK6   BANK7   BANK8   BANK9  BANK10  BANK1
      +1  BANK12  BANK13  BANK14  BANK15
  2205 ;;      Params:         0       0       0       0       0       0       0       0       0       0       0       0       
      +0       0       0       0       0
  2206 ;;      Locals:         0       0       0       0       0       0       0       0       0       0       0       0       
      +0       0       0       0       0
  2207 ;;      Temps:          0       0       0       0       0       0       0       0       0       0       0       0       
      +0       0       0       0       0
  2208 ;;      Totals:         0       0       0       0       0       0       0       0       0       0       0       0       
      +0       0       0       0       0
  2209 ;;Total ram usage:        0 bytes
  2210 ;; Hardware stack levels used:    1
  2211 ;; Hardware stack levels required when called:    8
  2212 ;; This function calls:
  2213 ;;		_customChange
  2214 ;;		_modeChange
  2215 ;;		_predefinedChange
  2216 ;; This function is called by:
  2217 ;;		_main
  2218 ;; This function uses a non-reentrant model
  2219 ;;
  2220                           
  2221                           	psect	text13
  2222  002156                     __ptext13:
  2223                           	callstack 0
  2224  002156                     _TEMpressCheck:
  2225                           	callstack 22
  2226  002156                     
  2227                           ;the3.c: 505:   if ((!PORTEbits.RE1 && inp_re1_btn_st) || (!PORTEbits.RE2 && inp_re2_btn
      +                          _st))
  2228  002156  B284               	btfsc	132,1,c	;volatile
  2229  002158  EFB0  F010         	goto	u7561
  2230  00215C  EFB2  F010         	goto	u7560
  2231  002160                     u7561:
  2232  002160  EFBA  F010         	goto	l362
  2233  002164                     u7560:
  2234  002164  5025               	movf	_inp_re1_btn_st^0,w,c
  2235  002166  A4D8               	btfss	status,2,c
  2236  002168  EFB8  F010         	goto	u7571
  2237  00216C  EFBA  F010         	goto	u7570
  2238  002170                     u7571:
  2239  002170  EFC9  F010         	goto	l4858
  2240  002174                     u7570:
  2241  002174                     l362:
  2242  002174  B484               	btfsc	132,2,c	;volatile
  2243  002176  EFBF  F010         	goto	u7581
  2244  00217A  EFC1  F010         	goto	u7580
  2245  00217E                     u7581:
  2246  00217E  EFCD  F010         	goto	l358
  2247  002182                     u7580:
  2248  002182  5024               	movf	_inp_re2_btn_st^0,w,c
  2249  002184  B4D8               	btfsc	status,2,c
  2250  002186  EFC7  F010         	goto	u7591
  2251  00218A  EFC9  F010         	goto	u7590
  2252  00218E                     u7591:
  2253  00218E  EFCD  F010         	goto	l358
  2254  002192                     u7590:
  2255  002192                     l4858:
  2256                           
  2257                           ;the3.c: 506:   {;the3.c: 507:     predefinedChange();
  2258  002192  EC08  F013         	call	_predefinedChange	;wreg free
  2259                           
  2260                           ;the3.c: 508:   }
  2261  002196  EF0F  F011         	goto	l375
  2262  00219A                     l358:
  2263  00219A  B084               	btfsc	132,0,c	;volatile
  2264  00219C  EFD2  F010         	goto	u7601
  2265  0021A0  EFD4  F010         	goto	u7600
  2266  0021A4                     u7601:
  2267  0021A4  EFDC  F010         	goto	l368
  2268  0021A8                     u7600:
  2269  0021A8  5026               	movf	_inp_re0_btn_st^0,w,c
  2270  0021AA  A4D8               	btfss	status,2,c
  2271  0021AC  EFDA  F010         	goto	u7611
  2272  0021B0  EFDC  F010         	goto	u7610
  2273  0021B4                     u7611:
  2274  0021B4  EFEB  F010         	goto	l4864
  2275  0021B8                     u7610:
  2276  0021B8                     l368:
  2277  0021B8  B684               	btfsc	132,3,c	;volatile
  2278  0021BA  EFE1  F010         	goto	u7621
  2279  0021BE  EFE3  F010         	goto	u7620
  2280  0021C2                     u7621:
  2281  0021C2  EFEF  F010         	goto	l364
  2282  0021C6                     u7620:
  2283  0021C6  5023               	movf	_inp_re3_btn_st^0,w,c
  2284  0021C8  B4D8               	btfsc	status,2,c
  2285  0021CA  EFE9  F010         	goto	u7631
  2286  0021CE  EFEB  F010         	goto	u7630
  2287  0021D2                     u7631:
  2288  0021D2  EFEF  F010         	goto	l364
  2289  0021D6                     u7630:
  2290  0021D6                     l4864:
  2291                           
  2292                           ;the3.c: 510:   {;the3.c: 511:     customChange();
  2293  0021D6  EC29  F00F         	call	_customChange	;wreg free
  2294                           
  2295                           ;the3.c: 512:   }
  2296  0021DA  EF0F  F011         	goto	l375
  2297  0021DE                     l364:
  2298  0021DE  B884               	btfsc	132,4,c	;volatile
  2299  0021E0  EFF4  F010         	goto	u7641
  2300  0021E4  EFF6  F010         	goto	u7640
  2301  0021E8                     u7641:
  2302  0021E8  EFFE  F010         	goto	l374
  2303  0021EC                     u7640:
  2304  0021EC  5022               	movf	_inp_re4_btn_st^0,w,c
  2305  0021EE  A4D8               	btfss	status,2,c
  2306  0021F0  EFFC  F010         	goto	u7651
  2307  0021F4  EFFE  F010         	goto	u7650
  2308  0021F8                     u7651:
  2309  0021F8  EF0D  F011         	goto	l4870
  2310  0021FC                     u7650:
  2311  0021FC                     l374:
  2312  0021FC  BA84               	btfsc	132,5,c	;volatile
  2313  0021FE  EF03  F011         	goto	u7661
  2314  002202  EF05  F011         	goto	u7660
  2315  002206                     u7661:
  2316  002206  EF0F  F011         	goto	l375
  2317  00220A                     u7660:
  2318  00220A  5021               	movf	_inp_re5_btn_st^0,w,c
  2319  00220C  B4D8               	btfsc	status,2,c
  2320  00220E  EF0B  F011         	goto	u7671
  2321  002212  EF0D  F011         	goto	u7670
  2322  002216                     u7671:
  2323  002216  EF0F  F011         	goto	l375
  2324  00221A                     u7670:
  2325  00221A                     l4870:
  2326                           
  2327                           ;the3.c: 514:   {;the3.c: 515:     modeChange();
  2328  00221A  EC33  F010         	call	_modeChange	;wreg free
  2329  00221E                     l375:
  2330  00221E  0012               	return		;funcret
  2331  002220                     __end_of_TEMpressCheck:
  2332                           	callstack 0
  2333                           
  2334 ;; *************** function _predefinedChange *****************
  2335 ;; Defined at:
  2336 ;;		line 631 in file "the3.c"
  2337 ;; Parameters:    Size  Location     Type
  2338 ;;		None
  2339 ;; Auto vars:     Size  Location     Type
  2340 ;;		None
  2341 ;; Return value:  Size  Location     Type
  2342 ;;                  1    wreg      void 
  2343 ;; Registers used:
  2344 ;;		wreg, fsr1l, fsr1h, fsr2l, fsr2h, status,2, status,0, cstack
  2345 ;; Tracked objects:
  2346 ;;		On entry : 0/0
  2347 ;;		On exit  : 0/0
  2348 ;;		Unchanged: 0/0
  2349 ;; Data sizes:     COMRAM   BANK0   BANK1   BANK2   BANK3   BANK4   BANK5   BANK6   BANK7   BANK8   BANK9  BANK10  BANK1
      +1  BANK12  BANK13  BANK14  BANK15
  2350 ;;      Params:         0       0       0       0       0       0       0       0       0       0       0       0       
      +0       0       0       0       0
  2351 ;;      Locals:         0       0       0       0       0       0       0       0       0       0       0       0       
      +0       0       0       0       0
  2352 ;;      Temps:          0       0       0       0       0       0       0       0       0       0       0       0       
      +0       0       0       0       0
  2353 ;;      Totals:         0       0       0       0       0       0       0       0       0       0       0       0       
      +0       0       0       0       0
  2354 ;;Total ram usage:        0 bytes
  2355 ;; Hardware stack levels used:    1
  2356 ;; Hardware stack levels required when called:    7
  2357 ;; This function calls:
  2358 ;;		_LCDdisplay
  2359 ;; This function is called by:
  2360 ;;		_TEMpressCheck
  2361 ;; This function uses a non-reentrant model
  2362 ;;
  2363                           
  2364                           	psect	text14
  2365  002610                     __ptext14:
  2366                           	callstack 0
  2367  002610                     _predefinedChange:
  2368                           	callstack 22
  2369  002610                     
  2370                           ;the3.c: 633:   if (inp_re1_btn_st)
  2371  002610  5025               	movf	_inp_re1_btn_st^0,w,c
  2372  002612  B4D8               	btfsc	status,2,c
  2373  002614  EF0E  F013         	goto	u6101
  2374  002618  EF10  F013         	goto	u6100
  2375  00261C                     u6101:
  2376  00261C  EF2A  F013         	goto	l4450
  2377  002620                     u6100:
  2378  002620                     
  2379                           ;the3.c: 634:   {;the3.c: 635:     inp_re1_btn_st = 0;
  2380  002620  0E00               	movlw	0
  2381  002622  6E25               	movwf	_inp_re1_btn_st^0,c
  2382                           
  2383                           ;the3.c: 636:     customCharInsert = 0;
  2384  002624  0E00               	movlw	0
  2385  002626  6E08               	movwf	(_customCharInsert+1)^0,c
  2386  002628  0E00               	movlw	0
  2387  00262A  6E07               	movwf	_customCharInsert^0,c
  2388  00262C                     
  2389                           ;the3.c: 637:     if (preLetterCount == 0)
  2390  00262C  500F               	movf	_preLetterCount^0,w,c
  2391  00262E  1010               	iorwf	(_preLetterCount+1)^0,w,c
  2392  002630  A4D8               	btfss	status,2,c
  2393  002632  EF1D  F013         	goto	u6111
  2394  002636  EF1F  F013         	goto	u6110
  2395  00263A                     u6111:
  2396  00263A  EF25  F013         	goto	l4448
  2397  00263E                     u6110:
  2398  00263E                     
  2399                           ;the3.c: 638:     {;the3.c: 639:       preLetterCount = 36;
  2400  00263E  0E00               	movlw	0
  2401  002640  6E10               	movwf	(_preLetterCount+1)^0,c
  2402  002642  0E24               	movlw	36
  2403  002644  6E0F               	movwf	_preLetterCount^0,c
  2404                           
  2405                           ;the3.c: 640:     }
  2406  002646  EF4A  F013         	goto	l4460
  2407  00264A                     l4448:
  2408                           
  2409                           ;the3.c: 642:     {;the3.c: 643:       preLetterCount -= 1;
  2410  00264A  060F               	decf	_preLetterCount^0,f,c
  2411  00264C  A0D8               	btfss	status,0,c
  2412  00264E  0610               	decf	(_preLetterCount+1)^0,f,c
  2413  002650  EF4A  F013         	goto	l4460
  2414  002654                     l4450:
  2415  002654  5024               	movf	_inp_re2_btn_st^0,w,c
  2416  002656  B4D8               	btfsc	status,2,c
  2417  002658  EF30  F013         	goto	u6121
  2418  00265C  EF32  F013         	goto	u6120
  2419  002660                     u6121:
  2420  002660  EF4A  F013         	goto	l4460
  2421  002664                     u6120:
  2422  002664                     
  2423                           ;the3.c: 647:   {;the3.c: 648:     inp_re2_btn_st = 0;
  2424  002664  0E00               	movlw	0
  2425  002666  6E24               	movwf	_inp_re2_btn_st^0,c
  2426                           
  2427                           ;the3.c: 649:     customCharInsert = 0;
  2428  002668  0E00               	movlw	0
  2429  00266A  6E08               	movwf	(_customCharInsert+1)^0,c
  2430  00266C  0E00               	movlw	0
  2431  00266E  6E07               	movwf	_customCharInsert^0,c
  2432  002670                     
  2433                           ;the3.c: 650:     if (preLetterCount == 36)
  2434  002670  0E24               	movlw	36
  2435  002672  180F               	xorwf	_preLetterCount^0,w,c
  2436  002674  1010               	iorwf	(_preLetterCount+1)^0,w,c
  2437  002676  A4D8               	btfss	status,2,c
  2438  002678  EF40  F013         	goto	u6131
  2439  00267C  EF42  F013         	goto	u6130
  2440  002680                     u6131:
  2441  002680  EF48  F013         	goto	l4458
  2442  002684                     u6130:
  2443  002684                     
  2444                           ;the3.c: 651:     {;the3.c: 652:       preLetterCount = 0;
  2445  002684  0E00               	movlw	0
  2446  002686  6E10               	movwf	(_preLetterCount+1)^0,c
  2447  002688  0E00               	movlw	0
  2448  00268A  6E0F               	movwf	_preLetterCount^0,c
  2449                           
  2450                           ;the3.c: 653:     }
  2451  00268C  EF4A  F013         	goto	l4460
  2452  002690                     l4458:
  2453                           
  2454                           ;the3.c: 655:     {;the3.c: 656:       preLetterCount += 1;
  2455  002690  4A0F               	infsnz	_preLetterCount^0,f,c
  2456  002692  2A10               	incf	(_preLetterCount+1)^0,f,c
  2457  002694                     l4460:
  2458                           
  2459                           ;the3.c: 659:   LCDdisplay();
  2460  002694  ECFE  F005         	call	_LCDdisplay	;wreg free
  2461  002698  0012               	return		;funcret
  2462  00269A                     __end_of_predefinedChange:
  2463                           	callstack 0
  2464                           
  2465 ;; *************** function _customChange *****************
  2466 ;; Defined at:
  2467 ;;		line 519 in file "the3.c"
  2468 ;; Parameters:    Size  Location     Type
  2469 ;;		None
  2470 ;; Auto vars:     Size  Location     Type
  2471 ;;		None
  2472 ;; Return value:  Size  Location     Type
  2473 ;;                  1    wreg      void 
  2474 ;; Registers used:
  2475 ;;		wreg, fsr1l, fsr1h, fsr2l, fsr2h, status,2, status,0, cstack
  2476 ;; Tracked objects:
  2477 ;;		On entry : 0/0
  2478 ;;		On exit  : 0/0
  2479 ;;		Unchanged: 0/0
  2480 ;; Data sizes:     COMRAM   BANK0   BANK1   BANK2   BANK3   BANK4   BANK5   BANK6   BANK7   BANK8   BANK9  BANK10  BANK1
      +1  BANK12  BANK13  BANK14  BANK15
  2481 ;;      Params:         0       0       0       0       0       0       0       0       0       0       0       0       
      +0       0       0       0       0
  2482 ;;      Locals:         0       0       0       0       0       0       0       0       0       0       0       0       
      +0       0       0       0       0
  2483 ;;      Temps:          4       0       0       0       0       0       0       0       0       0       0       0       
      +0       0       0       0       0
  2484 ;;      Totals:         4       0       0       0       0       0       0       0       0       0       0       0       
      +0       0       0       0       0
  2485 ;;Total ram usage:        4 bytes
  2486 ;; Hardware stack levels used:    1
  2487 ;; Hardware stack levels required when called:    7
  2488 ;; This function calls:
  2489 ;;		_LCDdisplay
  2490 ;; This function is called by:
  2491 ;;		_TEMpressCheck
  2492 ;; This function uses a non-reentrant model
  2493 ;;
  2494                           
  2495                           	psect	text15
  2496  001E52                     __ptext15:
  2497                           	callstack 0
  2498  001E52                     _customChange:
  2499                           	callstack 22
  2500  001E52                     
  2501                           ;the3.c: 521:   if (customNum != 0 || customNum != 8)
  2502  001E52  5020               	movf	_customNum^0,w,c
  2503  001E54  A4D8               	btfss	status,2,c
  2504  001E56  EF2F  F00F         	goto	u6141
  2505  001E5A  EF31  F00F         	goto	u6140
  2506  001E5E                     u6141:
  2507  001E5E  EF3A  F00F         	goto	l4466
  2508  001E62                     u6140:
  2509  001E62  0E08               	movlw	8
  2510  001E64  1820               	xorwf	_customNum^0,w,c
  2511  001E66  B4D8               	btfsc	status,2,c
  2512  001E68  EF38  F00F         	goto	u6151
  2513  001E6C  EF3A  F00F         	goto	u6150
  2514  001E70                     u6151:
  2515  001E70  EFB5  F00F         	goto	l392
  2516  001E74                     u6150:
  2517  001E74                     l4466:
  2518                           
  2519                           ;the3.c: 522:   {;the3.c: 523:     if (inp_re3_btn_st)
  2520  001E74  5023               	movf	_inp_re3_btn_st^0,w,c
  2521  001E76  B4D8               	btfsc	status,2,c
  2522  001E78  EF40  F00F         	goto	u6161
  2523  001E7C  EF42  F00F         	goto	u6160
  2524  001E80                     u6161:
  2525  001E80  EF73  F00F         	goto	l4484
  2526  001E84                     u6160:
  2527  001E84                     
  2528                           ;the3.c: 524:     {;the3.c: 525:       inp_re3_btn_st = 0;
  2529  001E84  0E00               	movlw	0
  2530  001E86  6E23               	movwf	_inp_re3_btn_st^0,c
  2531  001E88                     
  2532                           ;the3.c: 527:       if (customCharInsert == 0)
  2533  001E88  5007               	movf	_customCharInsert^0,w,c
  2534  001E8A  1008               	iorwf	(_customCharInsert+1)^0,w,c
  2535  001E8C  A4D8               	btfss	status,2,c
  2536  001E8E  EF4B  F00F         	goto	u6171
  2537  001E92  EF4D  F00F         	goto	u6170
  2538  001E96                     u6171:
  2539  001E96  EF59  F00F         	goto	l4476
  2540  001E9A                     u6170:
  2541  001E9A                     
  2542                           ;the3.c: 528:       {;the3.c: 529:         customCharInsert = 1;
  2543  001E9A  0E00               	movlw	0
  2544  001E9C  6E08               	movwf	(_customCharInsert+1)^0,c
  2545  001E9E  0E01               	movlw	1
  2546  001EA0  6E07               	movwf	_customCharInsert^0,c
  2547  001EA2                     
  2548                           ;the3.c: 530:         customCharCount = customNum - 1;
  2549  001EA2  0EFF               	movlw	255
  2550  001EA4  2420               	addwf	_customNum^0,w,c
  2551  001EA6  6E0D               	movwf	_customCharCount^0,c
  2552  001EA8  6A0E               	clrf	(_customCharCount+1)^0,c
  2553  001EAA  0EFF               	movlw	255
  2554  001EAC  220E               	addwfc	(_customCharCount+1)^0,f,c
  2555                           
  2556                           ;the3.c: 531:       }
  2557  001EAE  EFB3  F00F         	goto	l4498
  2558  001EB2                     l4476:
  2559                           
  2560                           ;the3.c: 533:       {;the3.c: 534:         if (customCharCount == 0)
  2561  001EB2  500D               	movf	_customCharCount^0,w,c
  2562  001EB4  100E               	iorwf	(_customCharCount+1)^0,w,c
  2563  001EB6  A4D8               	btfss	status,2,c
  2564  001EB8  EF60  F00F         	goto	u6181
  2565  001EBC  EF62  F00F         	goto	u6180
  2566  001EC0                     u6181:
  2567  001EC0  EF6E  F00F         	goto	l4482
  2568  001EC4                     u6180:
  2569  001EC4                     
  2570                           ;the3.c: 535:         {;the3.c: 536:           customCharCount = customNum - 1;
  2571  001EC4  0EFF               	movlw	255
  2572  001EC6  2420               	addwf	_customNum^0,w,c
  2573  001EC8  6E0D               	movwf	_customCharCount^0,c
  2574  001ECA  6A0E               	clrf	(_customCharCount+1)^0,c
  2575  001ECC  0EFF               	movlw	255
  2576  001ECE  220E               	addwfc	(_customCharCount+1)^0,f,c
  2577  001ED0                     
  2578                           ;the3.c: 537:           customCharInsert = 0;
  2579  001ED0  0E00               	movlw	0
  2580  001ED2  6E08               	movwf	(_customCharInsert+1)^0,c
  2581  001ED4  0E00               	movlw	0
  2582  001ED6  6E07               	movwf	_customCharInsert^0,c
  2583                           
  2584                           ;the3.c: 538:         }
  2585  001ED8  EFB3  F00F         	goto	l4498
  2586  001EDC                     l4482:
  2587                           
  2588                           ;the3.c: 540:         {;the3.c: 541:           customCharCount -= 1;
  2589  001EDC  060D               	decf	_customCharCount^0,f,c
  2590  001EDE  A0D8               	btfss	status,0,c
  2591  001EE0  060E               	decf	(_customCharCount+1)^0,f,c
  2592  001EE2  EFB3  F00F         	goto	l4498
  2593  001EE6                     l4484:
  2594  001EE6  5026               	movf	_inp_re0_btn_st^0,w,c
  2595  001EE8  B4D8               	btfsc	status,2,c
  2596  001EEA  EF79  F00F         	goto	u6191
  2597  001EEE  EF7B  F00F         	goto	u6190
  2598  001EF2                     u6191:
  2599  001EF2  EFB3  F00F         	goto	l4498
  2600  001EF6                     u6190:
  2601  001EF6                     
  2602                           ;the3.c: 546:     {;the3.c: 547:       inp_re0_btn_st = 0;
  2603  001EF6  0E00               	movlw	0
  2604  001EF8  6E26               	movwf	_inp_re0_btn_st^0,c
  2605  001EFA                     
  2606                           ;the3.c: 549:       if (customCharInsert == 0)
  2607  001EFA  5007               	movf	_customCharInsert^0,w,c
  2608  001EFC  1008               	iorwf	(_customCharInsert+1)^0,w,c
  2609  001EFE  A4D8               	btfss	status,2,c
  2610  001F00  EF84  F00F         	goto	u6201
  2611  001F04  EF86  F00F         	goto	u6200
  2612  001F08                     u6201:
  2613  001F08  EF90  F00F         	goto	l4492
  2614  001F0C                     u6200:
  2615  001F0C                     
  2616                           ;the3.c: 550:       {;the3.c: 551:         customCharInsert = 1;
  2617  001F0C  0E00               	movlw	0
  2618  001F0E  6E08               	movwf	(_customCharInsert+1)^0,c
  2619  001F10  0E01               	movlw	1
  2620  001F12  6E07               	movwf	_customCharInsert^0,c
  2621                           
  2622                           ;the3.c: 552:         customCharCount = 0;
  2623  001F14  0E00               	movlw	0
  2624  001F16  6E0E               	movwf	(_customCharCount+1)^0,c
  2625  001F18  0E00               	movlw	0
  2626  001F1A  6E0D               	movwf	_customCharCount^0,c
  2627                           
  2628                           ;the3.c: 553:       }
  2629  001F1C  EFB3  F00F         	goto	l4498
  2630  001F20                     l4492:
  2631                           
  2632                           ;the3.c: 555:       {;the3.c: 556:         if (customCharCount == customNum - 1)
  2633  001F20  0EFF               	movlw	255
  2634  001F22  6E34               	movwf	??_customChange^0,c
  2635  001F24  0EFF               	movlw	255
  2636  001F26  6E35               	movwf	(??_customChange+1)^0,c
  2637  001F28  5020               	movf	_customNum^0,w,c
  2638  001F2A  6E36               	movwf	(??_customChange+2)^0,c
  2639  001F2C  6A37               	clrf	(??_customChange+3)^0,c
  2640  001F2E  5034               	movf	??_customChange^0,w,c
  2641  001F30  2636               	addwf	(??_customChange+2)^0,f,c
  2642  001F32  5035               	movf	(??_customChange+1)^0,w,c
  2643  001F34  2237               	addwfc	(??_customChange+3)^0,f,c
  2644  001F36  500D               	movf	_customCharCount^0,w,c
  2645  001F38  1836               	xorwf	(??_customChange+2)^0,w,c
  2646  001F3A  E107               	bnz	u6211
  2647  001F3C  500E               	movf	(_customCharCount+1)^0,w,c
  2648  001F3E  1837               	xorwf	(??_customChange+3)^0,w,c
  2649  001F40  A4D8               	btfss	status,2,c
  2650  001F42  EFA5  F00F         	goto	u6211
  2651  001F46  EFA7  F00F         	goto	u6210
  2652  001F4A                     u6211:
  2653  001F4A  EFB1  F00F         	goto	l4496
  2654  001F4E                     u6210:
  2655  001F4E                     
  2656                           ;the3.c: 557:         {;the3.c: 558:           customCharCount = 0;
  2657  001F4E  0E00               	movlw	0
  2658  001F50  6E0E               	movwf	(_customCharCount+1)^0,c
  2659  001F52  0E00               	movlw	0
  2660  001F54  6E0D               	movwf	_customCharCount^0,c
  2661                           
  2662                           ;the3.c: 559:           customCharInsert = 0;
  2663  001F56  0E00               	movlw	0
  2664  001F58  6E08               	movwf	(_customCharInsert+1)^0,c
  2665  001F5A  0E00               	movlw	0
  2666  001F5C  6E07               	movwf	_customCharInsert^0,c
  2667                           
  2668                           ;the3.c: 560:         }
  2669  001F5E  EFB3  F00F         	goto	l4498
  2670  001F62                     l4496:
  2671                           
  2672                           ;the3.c: 562:         {;the3.c: 563:           customCharCount += 1;
  2673  001F62  4A0D               	infsnz	_customCharCount^0,f,c
  2674  001F64  2A0E               	incf	(_customCharCount+1)^0,f,c
  2675  001F66                     l4498:
  2676                           
  2677                           ;the3.c: 567:     LCDdisplay();
  2678  001F66  ECFE  F005         	call	_LCDdisplay	;wreg free
  2679  001F6A                     l392:
  2680  001F6A  0012               	return		;funcret
  2681  001F6C                     __end_of_customChange:
  2682                           	callstack 0
  2683                           
  2684 ;; *************** function _CDMpressCheck *****************
  2685 ;; Defined at:
  2686 ;;		line 571 in file "the3.c"
  2687 ;; Parameters:    Size  Location     Type
  2688 ;;		None
  2689 ;; Auto vars:     Size  Location     Type
  2690 ;;		None
  2691 ;; Return value:  Size  Location     Type
  2692 ;;                  1    wreg      void 
  2693 ;; Registers used:
  2694 ;;		wreg, fsr1l, fsr1h, fsr2l, fsr2h, status,2, status,0, cstack
  2695 ;; Tracked objects:
  2696 ;;		On entry : 0/0
  2697 ;;		On exit  : 0/0
  2698 ;;		Unchanged: 0/0
  2699 ;; Data sizes:     COMRAM   BANK0   BANK1   BANK2   BANK3   BANK4   BANK5   BANK6   BANK7   BANK8   BANK9  BANK10  BANK1
      +1  BANK12  BANK13  BANK14  BANK15
  2700 ;;      Params:         0       0       0       0       0       0       0       0       0       0       0       0       
      +0       0       0       0       0
  2701 ;;      Locals:         0       0       0       0       0       0       0       0       0       0       0       0       
      +0       0       0       0       0
  2702 ;;      Temps:          0       0       0       0       0       0       0       0       0       0       0       0       
      +0       0       0       0       0
  2703 ;;      Totals:         0       0       0       0       0       0       0       0       0       0       0       0       
      +0       0       0       0       0
  2704 ;;Total ram usage:        0 bytes
  2705 ;; Hardware stack levels used:    1
  2706 ;; Hardware stack levels required when called:    8
  2707 ;; This function calls:
  2708 ;;		_modeChange
  2709 ;; This function is called by:
  2710 ;;		_main
  2711 ;; This function uses a non-reentrant model
  2712 ;;
  2713                           
  2714                           	psect	text16
  2715  002A94                     __ptext16:
  2716                           	callstack 0
  2717  002A94                     _CDMpressCheck:
  2718                           	callstack 22
  2719  002A94                     
  2720                           ;the3.c: 573:   if ((!PORTEbits.RE5 && inp_re5_btn_st))
  2721  002A94  BA84               	btfsc	132,5,c	;volatile
  2722  002A96  EF4F  F015         	goto	u7681
  2723  002A9A  EF51  F015         	goto	u7680
  2724  002A9E                     u7681:
  2725  002A9E  EF5B  F015         	goto	l396
  2726  002AA2                     u7680:
  2727  002AA2  5021               	movf	_inp_re5_btn_st^0,w,c
  2728  002AA4  B4D8               	btfsc	status,2,c
  2729  002AA6  EF57  F015         	goto	u7691
  2730  002AAA  EF59  F015         	goto	u7690
  2731  002AAE                     u7691:
  2732  002AAE  EF5B  F015         	goto	l396
  2733  002AB2                     u7690:
  2734  002AB2                     
  2735                           ;the3.c: 574:   {;the3.c: 575:     modeChange();
  2736  002AB2  EC33  F010         	call	_modeChange	;wreg free
  2737  002AB6                     l396:
  2738  002AB6  0012               	return		;funcret
  2739  002AB8                     __end_of_CDMpressCheck:
  2740                           	callstack 0
  2741                           
  2742 ;; *************** function _modeChange *****************
  2743 ;; Defined at:
  2744 ;;		line 882 in file "the3.c"
  2745 ;; Parameters:    Size  Location     Type
  2746 ;;		None
  2747 ;; Auto vars:     Size  Location     Type
  2748 ;;  i               2   14[COMRAM] int 
  2749 ;;  temp            1   13[COMRAM] unsigned char 
  2750 ;; Return value:  Size  Location     Type
  2751 ;;                  1    wreg      void 
  2752 ;; Registers used:
  2753 ;;		wreg, fsr1l, fsr1h, fsr2l, fsr2h, status,2, status,0, cstack
  2754 ;; Tracked objects:
  2755 ;;		On entry : 0/0
  2756 ;;		On exit  : 0/0
  2757 ;;		Unchanged: 0/0
  2758 ;; Data sizes:     COMRAM   BANK0   BANK1   BANK2   BANK3   BANK4   BANK5   BANK6   BANK7   BANK8   BANK9  BANK10  BANK1
      +1  BANK12  BANK13  BANK14  BANK15
  2759 ;;      Params:         0       0       0       0       0       0       0       0       0       0       0       0       
      +0       0       0       0       0
  2760 ;;      Locals:         3       0       0       0       0       0       0       0       0       0       0       0       
      +0       0       0       0       0
  2761 ;;      Temps:          0       0       0       0       0       0       0       0       0       0       0       0       
      +0       0       0       0       0
  2762 ;;      Totals:         3       0       0       0       0       0       0       0       0       0       0       0       
      +0       0       0       0       0
  2763 ;;Total ram usage:        3 bytes
  2764 ;; Hardware stack levels used:    1
  2765 ;; Hardware stack levels required when called:    7
  2766 ;; This function calls:
  2767 ;;		_LCDdisplay
  2768 ;;		_LcdCmd
  2769 ;;		_LcdData
  2770 ;; This function is called by:
  2771 ;;		_TEMpressCheck
  2772 ;;		_CDMpressCheck
  2773 ;; This function uses a non-reentrant model
  2774 ;;
  2775                           
  2776                           	psect	text17
  2777  002066                     __ptext17:
  2778                           	callstack 0
  2779  002066                     _modeChange:
  2780                           	callstack 22
  2781  002066                     
  2782                           ;the3.c: 884:   if (mode == 1 && inp_re5_btn_st)
  2783  002066  040B               	decf	_mode^0,w,c
  2784  002068  100C               	iorwf	(_mode+1)^0,w,c
  2785  00206A  A4D8               	btfss	status,2,c
  2786  00206C  EF3A  F010         	goto	u6221
  2787  002070  EF3C  F010         	goto	u6220
  2788  002074                     u6221:
  2789  002074  EF76  F010         	goto	l4532
  2790  002078                     u6220:
  2791  002078  5021               	movf	_inp_re5_btn_st^0,w,c
  2792  00207A  B4D8               	btfsc	status,2,c
  2793  00207C  EF42  F010         	goto	u6231
  2794  002080  EF44  F010         	goto	u6230
  2795  002084                     u6231:
  2796  002084  EF76  F010         	goto	l4532
  2797  002088                     u6230:
  2798  002088                     
  2799                           ;the3.c: 885:   {;the3.c: 886:     inp_re5_btn_st = 0;
  2800  002088  0E00               	movlw	0
  2801  00208A  6E21               	movwf	_inp_re5_btn_st^0,c
  2802                           
  2803                           ;the3.c: 887:     mode = 0;
  2804  00208C  0E00               	movlw	0
  2805  00208E  6E0C               	movwf	(_mode+1)^0,c
  2806  002090  0E00               	movlw	0
  2807  002092  6E0B               	movwf	_mode^0,c
  2808  002094                     
  2809                           ;the3.c: 888:     customNum++;
  2810  002094  2A20               	incf	_customNum^0,f,c
  2811  002096                     
  2812                           ;the3.c: 889:     xCoord = 0;
  2813  002096  0E00               	movlw	0
  2814  002098  6E1F               	movwf	_xCoord^0,c
  2815  00209A                     
  2816                           ;the3.c: 890:     yCoord = 0;
  2817  00209A  0E00               	movlw	0
  2818  00209C  6E1E               	movwf	_yCoord^0,c
  2819  00209E                     
  2820                           ;the3.c: 891:     uint8_t temp = 0x80;
  2821  00209E  0E80               	movlw	128
  2822  0020A0  6E34               	movwf	modeChange@temp^0,c
  2823  0020A2                     
  2824                           ;the3.c: 893:     for (int i = 0; i < 16; i++)
  2825  0020A2  0E00               	movlw	0
  2826  0020A4  6E36               	movwf	(modeChange@i+1)^0,c
  2827  0020A6  0E00               	movlw	0
  2828  0020A8  6E35               	movwf	modeChange@i^0,c
  2829  0020AA                     l4520:
  2830                           
  2831                           ;the3.c: 894:     {;the3.c: 895:       LcdCmd(temp);
  2832  0020AA  5034               	movf	modeChange@temp^0,w,c
  2833  0020AC  EC0B  F015         	call	_LcdCmd
  2834  0020B0                     
  2835                           ;the3.c: 896:       temp += 1;
  2836  0020B0  2A34               	incf	modeChange@temp^0,f,c
  2837  0020B2                     
  2838                           ;the3.c: 897:       LcdData(lcdChars[i]);
  2839  0020B2  0EA6               	movlw	low _lcdChars
  2840  0020B4  2435               	addwf	modeChange@i^0,w,c
  2841  0020B6  6ED9               	movwf	fsr2l,c
  2842  0020B8  0E00               	movlw	high _lcdChars
  2843  0020BA  2036               	addwfc	(modeChange@i+1)^0,w,c
  2844  0020BC  6EDA               	movwf	fsr2h,c
  2845  0020BE  50DF               	movf	indf2,w,c
  2846  0020C0  ECF5  F014         	call	_LcdData
  2847  0020C4                     
  2848                           ;the3.c: 898:     }
  2849  0020C4  4A35               	infsnz	modeChange@i^0,f,c
  2850  0020C6  2A36               	incf	(modeChange@i+1)^0,f,c
  2851  0020C8  BE36               	btfsc	(modeChange@i+1)^0,7,c
  2852  0020CA  EF70  F010         	goto	u6241
  2853  0020CE  5036               	movf	(modeChange@i+1)^0,w,c
  2854  0020D0  E109               	bnz	u6240
  2855  0020D2  0E10               	movlw	16
  2856  0020D4  5C35               	subwf	modeChange@i^0,w,c
  2857  0020D6  A0D8               	btfss	status,0,c
  2858  0020D8  EF70  F010         	goto	u6241
  2859  0020DC  EF72  F010         	goto	u6240
  2860  0020E0                     u6241:
  2861  0020E0  EF55  F010         	goto	l4520
  2862  0020E4                     u6240:
  2863  0020E4                     
  2864                           ;the3.c: 899:     LCDdisplay();
  2865  0020E4  ECFE  F005         	call	_LCDdisplay	;wreg free
  2866                           
  2867                           ;the3.c: 900:   }
  2868  0020E8  EFAA  F010         	goto	l501
  2869  0020EC                     l4532:
  2870  0020EC  500B               	movf	_mode^0,w,c
  2871  0020EE  100C               	iorwf	(_mode+1)^0,w,c
  2872  0020F0  A4D8               	btfss	status,2,c
  2873  0020F2  EF7D  F010         	goto	u6251
  2874  0020F6  EF7F  F010         	goto	u6250
  2875  0020FA                     u6251:
  2876  0020FA  EF8F  F010         	goto	l4538
  2877  0020FE                     u6250:
  2878  0020FE  5021               	movf	_inp_re5_btn_st^0,w,c
  2879  002100  B4D8               	btfsc	status,2,c
  2880  002102  EF85  F010         	goto	u6261
  2881  002106  EF87  F010         	goto	u6260
  2882  00210A                     u6261:
  2883  00210A  EF8F  F010         	goto	l4538
  2884  00210E                     u6260:
  2885  00210E                     
  2886                           ;the3.c: 902:   {;the3.c: 903:     inp_re5_btn_st = 0;
  2887  00210E  0E00               	movlw	0
  2888  002110  6E21               	movwf	_inp_re5_btn_st^0,c
  2889                           
  2890                           ;the3.c: 904:     mode = 2;
  2891  002112  0E00               	movlw	0
  2892  002114  6E0C               	movwf	(_mode+1)^0,c
  2893  002116  0E02               	movlw	2
  2894  002118  6E0B               	movwf	_mode^0,c
  2895                           
  2896                           ;the3.c: 905:   }
  2897  00211A  EFAA  F010         	goto	l501
  2898  00211E                     l4538:
  2899  00211E  500B               	movf	_mode^0,w,c
  2900  002120  100C               	iorwf	(_mode+1)^0,w,c
  2901  002122  A4D8               	btfss	status,2,c
  2902  002124  EF96  F010         	goto	u6271
  2903  002128  EF98  F010         	goto	u6270
  2904  00212C                     u6271:
  2905  00212C  EFAA  F010         	goto	l501
  2906  002130                     u6270:
  2907  002130  5022               	movf	_inp_re4_btn_st^0,w,c
  2908  002132  B4D8               	btfsc	status,2,c
  2909  002134  EF9E  F010         	goto	u6281
  2910  002138  EFA0  F010         	goto	u6280
  2911  00213C                     u6281:
  2912  00213C  EFAA  F010         	goto	l501
  2913  002140                     u6280:
  2914  002140                     
  2915                           ;the3.c: 907:   {;the3.c: 908:     inp_re4_btn_st = 0;
  2916  002140  0E00               	movlw	0
  2917  002142  6E22               	movwf	_inp_re4_btn_st^0,c
  2918                           
  2919                           ;the3.c: 909:     mode = 1;
  2920  002144  0E00               	movlw	0
  2921  002146  6E0C               	movwf	(_mode+1)^0,c
  2922  002148  0E01               	movlw	1
  2923  00214A  6E0B               	movwf	_mode^0,c
  2924                           
  2925                           ;the3.c: 910:     isFirstArrive = 1;
  2926  00214C  0E00               	movlw	0
  2927  00214E  6E0A               	movwf	(_isFirstArrive+1)^0,c
  2928  002150  0E01               	movlw	1
  2929  002152  6E09               	movwf	_isFirstArrive^0,c
  2930  002154                     l501:
  2931  002154  0012               	return		;funcret
  2932  002156                     __end_of_modeChange:
  2933                           	callstack 0
  2934                           
  2935 ;; *************** function _LCDdisplay *****************
  2936 ;; Defined at:
  2937 ;;		line 662 in file "the3.c"
  2938 ;; Parameters:    Size  Location     Type
  2939 ;;		None
  2940 ;; Auto vars:     Size  Location     Type
  2941 ;;		None
  2942 ;; Return value:  Size  Location     Type
  2943 ;;                  1    wreg      void 
  2944 ;; Registers used:
  2945 ;;		wreg, fsr1l, fsr1h, fsr2l, fsr2h, status,2, status,0, cstack
  2946 ;; Tracked objects:
  2947 ;;		On entry : 0/0
  2948 ;;		On exit  : 0/0
  2949 ;;		Unchanged: 0/0
  2950 ;; Data sizes:     COMRAM   BANK0   BANK1   BANK2   BANK3   BANK4   BANK5   BANK6   BANK7   BANK8   BANK9  BANK10  BANK1
      +1  BANK12  BANK13  BANK14  BANK15
  2951 ;;      Params:         0       0       0       0       0       0       0       0       0       0       0       0       
      +0       0       0       0       0
  2952 ;;      Locals:         0       0       0       0       0       0       0       0       0       0       0       0       
      +0       0       0       0       0
  2953 ;;      Temps:          0       0       0       0       0       0       0       0       0       0       0       0       
      +0       0       0       0       0
  2954 ;;      Totals:         0       0       0       0       0       0       0       0       0       0       0       0       
      +0       0       0       0       0
  2955 ;;Total ram usage:        0 bytes
  2956 ;; Hardware stack levels used:    1
  2957 ;; Hardware stack levels required when called:    6
  2958 ;; This function calls:
  2959 ;;		_LcdCmd
  2960 ;;		_LcdData
  2961 ;; This function is called by:
  2962 ;;		_customChange
  2963 ;;		_predefinedChange
  2964 ;;		_modeChange
  2965 ;; This function uses a non-reentrant model
  2966 ;;
  2967                           
  2968                           	psect	text18
  2969  000BFC                     __ptext18:
  2970                           	callstack 0
  2971  000BFC                     _LCDdisplay:
  2972                           	callstack 22
  2973  000BFC                     
  2974                           ;the3.c: 664:   if (customCharInsert == 0)
  2975  000BFC  5007               	movf	_customCharInsert^0,w,c
  2976  000BFE  1008               	iorwf	(_customCharInsert+1)^0,w,c
  2977  000C00  A4D8               	btfss	status,2,c
  2978  000C02  EF05  F006         	goto	u5711
  2979  000C06  EF07  F006         	goto	u5710
  2980  000C0A                     u5711:
  2981  000C0A  EFC5  F007         	goto	l4304
  2982  000C0E                     u5710:
  2983  000C0E                     
  2984                           ;the3.c: 665:   {;the3.c: 666:     if (currentLedIndex == 0)
  2985  000C0E  5011               	movf	_currentLedIndex^0,w,c
  2986  000C10  1012               	iorwf	(_currentLedIndex+1)^0,w,c
  2987  000C12  A4D8               	btfss	status,2,c
  2988  000C14  EF0E  F006         	goto	u5721
  2989  000C18  EF10  F006         	goto	u5720
  2990  000C1C                     u5721:
  2991  000C1C  EF21  F006         	goto	l4182
  2992  000C20                     u5720:
  2993  000C20                     
  2994                           ;the3.c: 667:     {;the3.c: 668:       LcdCmd(0x80);
  2995  000C20  0E80               	movlw	128
  2996  000C22  EC0B  F015         	call	_LcdCmd
  2997  000C26                     
  2998                           ;the3.c: 669:       LcdData(PREDEFINED[preLetterCount]);
  2999  000C26  0E60               	movlw	low _PREDEFINED
  3000  000C28  240F               	addwf	_preLetterCount^0,w,c
  3001  000C2A  6ED9               	movwf	fsr2l,c
  3002  000C2C  0E00               	movlw	high _PREDEFINED
  3003  000C2E  2010               	addwfc	(_preLetterCount+1)^0,w,c
  3004  000C30  6EDA               	movwf	fsr2h,c
  3005  000C32  50DF               	movf	indf2,w,c
  3006  000C34  ECF5  F014         	call	_LcdData
  3007  000C38                     
  3008                           ;the3.c: 670:       LcdCmd(0b00010000);
  3009  000C38  0E10               	movlw	16
  3010  000C3A  EC0B  F015         	call	_LcdCmd
  3011                           
  3012                           ;the3.c: 671:     }
  3013  000C3E  EFB5  F007         	goto	l4302
  3014  000C42                     l4182:
  3015  000C42  0411               	decf	_currentLedIndex^0,w,c
  3016  000C44  1012               	iorwf	(_currentLedIndex+1)^0,w,c
  3017  000C46  A4D8               	btfss	status,2,c
  3018  000C48  EF28  F006         	goto	u5731
  3019  000C4C  EF2A  F006         	goto	u5730
  3020  000C50                     u5731:
  3021  000C50  EF3B  F006         	goto	l4190
  3022  000C54                     u5730:
  3023  000C54                     
  3024                           ;the3.c: 673:     {;the3.c: 674:       LcdCmd(0x81);
  3025  000C54  0E81               	movlw	129
  3026  000C56  EC0B  F015         	call	_LcdCmd
  3027  000C5A                     
  3028                           ;the3.c: 675:       LcdData(PREDEFINED[preLetterCount]);
  3029  000C5A  0E60               	movlw	low _PREDEFINED
  3030  000C5C  240F               	addwf	_preLetterCount^0,w,c
  3031  000C5E  6ED9               	movwf	fsr2l,c
  3032  000C60  0E00               	movlw	high _PREDEFINED
  3033  000C62  2010               	addwfc	(_preLetterCount+1)^0,w,c
  3034  000C64  6EDA               	movwf	fsr2h,c
  3035  000C66  50DF               	movf	indf2,w,c
  3036  000C68  ECF5  F014         	call	_LcdData
  3037  000C6C                     
  3038                           ;the3.c: 676:       LcdCmd(0b00010000);
  3039  000C6C  0E10               	movlw	16
  3040  000C6E  EC0B  F015         	call	_LcdCmd
  3041                           
  3042                           ;the3.c: 677:     }
  3043  000C72  EFB5  F007         	goto	l4302
  3044  000C76                     l4190:
  3045  000C76  0E02               	movlw	2
  3046  000C78  1811               	xorwf	_currentLedIndex^0,w,c
  3047  000C7A  1012               	iorwf	(_currentLedIndex+1)^0,w,c
  3048  000C7C  A4D8               	btfss	status,2,c
  3049  000C7E  EF43  F006         	goto	u5741
  3050  000C82  EF45  F006         	goto	u5740
  3051  000C86                     u5741:
  3052  000C86  EF56  F006         	goto	l4198
  3053  000C8A                     u5740:
  3054  000C8A                     
  3055                           ;the3.c: 679:     {;the3.c: 680:       LcdCmd(0x82);
  3056  000C8A  0E82               	movlw	130
  3057  000C8C  EC0B  F015         	call	_LcdCmd
  3058  000C90                     
  3059                           ;the3.c: 681:       LcdData(PREDEFINED[preLetterCount]);
  3060  000C90  0E60               	movlw	low _PREDEFINED
  3061  000C92  240F               	addwf	_preLetterCount^0,w,c
  3062  000C94  6ED9               	movwf	fsr2l,c
  3063  000C96  0E00               	movlw	high _PREDEFINED
  3064  000C98  2010               	addwfc	(_preLetterCount+1)^0,w,c
  3065  000C9A  6EDA               	movwf	fsr2h,c
  3066  000C9C  50DF               	movf	indf2,w,c
  3067  000C9E  ECF5  F014         	call	_LcdData
  3068  000CA2                     
  3069                           ;the3.c: 682:       LcdCmd(0b00010000);
  3070  000CA2  0E10               	movlw	16
  3071  000CA4  EC0B  F015         	call	_LcdCmd
  3072                           
  3073                           ;the3.c: 683:     }
  3074  000CA8  EFB5  F007         	goto	l4302
  3075  000CAC                     l4198:
  3076  000CAC  0E03               	movlw	3
  3077  000CAE  1811               	xorwf	_currentLedIndex^0,w,c
  3078  000CB0  1012               	iorwf	(_currentLedIndex+1)^0,w,c
  3079  000CB2  A4D8               	btfss	status,2,c
  3080  000CB4  EF5E  F006         	goto	u5751
  3081  000CB8  EF60  F006         	goto	u5750
  3082  000CBC                     u5751:
  3083  000CBC  EF71  F006         	goto	l4206
  3084  000CC0                     u5750:
  3085  000CC0                     
  3086                           ;the3.c: 685:     {;the3.c: 686:       LcdCmd(0x83);
  3087  000CC0  0E83               	movlw	131
  3088  000CC2  EC0B  F015         	call	_LcdCmd
  3089  000CC6                     
  3090                           ;the3.c: 687:       LcdData(PREDEFINED[preLetterCount]);
  3091  000CC6  0E60               	movlw	low _PREDEFINED
  3092  000CC8  240F               	addwf	_preLetterCount^0,w,c
  3093  000CCA  6ED9               	movwf	fsr2l,c
  3094  000CCC  0E00               	movlw	high _PREDEFINED
  3095  000CCE  2010               	addwfc	(_preLetterCount+1)^0,w,c
  3096  000CD0  6EDA               	movwf	fsr2h,c
  3097  000CD2  50DF               	movf	indf2,w,c
  3098  000CD4  ECF5  F014         	call	_LcdData
  3099  000CD8                     
  3100                           ;the3.c: 688:       LcdCmd(0b00010000);
  3101  000CD8  0E10               	movlw	16
  3102  000CDA  EC0B  F015         	call	_LcdCmd
  3103                           
  3104                           ;the3.c: 689:     }
  3105  000CDE  EFB5  F007         	goto	l4302
  3106  000CE2                     l4206:
  3107  000CE2  0E04               	movlw	4
  3108  000CE4  1811               	xorwf	_currentLedIndex^0,w,c
  3109  000CE6  1012               	iorwf	(_currentLedIndex+1)^0,w,c
  3110  000CE8  A4D8               	btfss	status,2,c
  3111  000CEA  EF79  F006         	goto	u5761
  3112  000CEE  EF7B  F006         	goto	u5760
  3113  000CF2                     u5761:
  3114  000CF2  EF8C  F006         	goto	l4214
  3115  000CF6                     u5760:
  3116  000CF6                     
  3117                           ;the3.c: 691:     {;the3.c: 692:       LcdCmd(0x84);
  3118  000CF6  0E84               	movlw	132
  3119  000CF8  EC0B  F015         	call	_LcdCmd
  3120  000CFC                     
  3121                           ;the3.c: 693:       LcdData(PREDEFINED[preLetterCount]);
  3122  000CFC  0E60               	movlw	low _PREDEFINED
  3123  000CFE  240F               	addwf	_preLetterCount^0,w,c
  3124  000D00  6ED9               	movwf	fsr2l,c
  3125  000D02  0E00               	movlw	high _PREDEFINED
  3126  000D04  2010               	addwfc	(_preLetterCount+1)^0,w,c
  3127  000D06  6EDA               	movwf	fsr2h,c
  3128  000D08  50DF               	movf	indf2,w,c
  3129  000D0A  ECF5  F014         	call	_LcdData
  3130  000D0E                     
  3131                           ;the3.c: 694:       LcdCmd(0b00010000);
  3132  000D0E  0E10               	movlw	16
  3133  000D10  EC0B  F015         	call	_LcdCmd
  3134                           
  3135                           ;the3.c: 695:     }
  3136  000D14  EFB5  F007         	goto	l4302
  3137  000D18                     l4214:
  3138  000D18  0E05               	movlw	5
  3139  000D1A  1811               	xorwf	_currentLedIndex^0,w,c
  3140  000D1C  1012               	iorwf	(_currentLedIndex+1)^0,w,c
  3141  000D1E  A4D8               	btfss	status,2,c
  3142  000D20  EF94  F006         	goto	u5771
  3143  000D24  EF96  F006         	goto	u5770
  3144  000D28                     u5771:
  3145  000D28  EFA7  F006         	goto	l4222
  3146  000D2C                     u5770:
  3147  000D2C                     
  3148                           ;the3.c: 697:     {;the3.c: 698:       LcdCmd(0x85);
  3149  000D2C  0E85               	movlw	133
  3150  000D2E  EC0B  F015         	call	_LcdCmd
  3151  000D32                     
  3152                           ;the3.c: 699:       LcdData(PREDEFINED[preLetterCount]);
  3153  000D32  0E60               	movlw	low _PREDEFINED
  3154  000D34  240F               	addwf	_preLetterCount^0,w,c
  3155  000D36  6ED9               	movwf	fsr2l,c
  3156  000D38  0E00               	movlw	high _PREDEFINED
  3157  000D3A  2010               	addwfc	(_preLetterCount+1)^0,w,c
  3158  000D3C  6EDA               	movwf	fsr2h,c
  3159  000D3E  50DF               	movf	indf2,w,c
  3160  000D40  ECF5  F014         	call	_LcdData
  3161  000D44                     
  3162                           ;the3.c: 700:       LcdCmd(0b00010000);
  3163  000D44  0E10               	movlw	16
  3164  000D46  EC0B  F015         	call	_LcdCmd
  3165                           
  3166                           ;the3.c: 701:     }
  3167  000D4A  EFB5  F007         	goto	l4302
  3168  000D4E                     l4222:
  3169  000D4E  0E06               	movlw	6
  3170  000D50  1811               	xorwf	_currentLedIndex^0,w,c
  3171  000D52  1012               	iorwf	(_currentLedIndex+1)^0,w,c
  3172  000D54  A4D8               	btfss	status,2,c
  3173  000D56  EFAF  F006         	goto	u5781
  3174  000D5A  EFB1  F006         	goto	u5780
  3175  000D5E                     u5781:
  3176  000D5E  EFC2  F006         	goto	l4230
  3177  000D62                     u5780:
  3178  000D62                     
  3179                           ;the3.c: 703:     {;the3.c: 704:       LcdCmd(0x86);
  3180  000D62  0E86               	movlw	134
  3181  000D64  EC0B  F015         	call	_LcdCmd
  3182  000D68                     
  3183                           ;the3.c: 705:       LcdData(PREDEFINED[preLetterCount]);
  3184  000D68  0E60               	movlw	low _PREDEFINED
  3185  000D6A  240F               	addwf	_preLetterCount^0,w,c
  3186  000D6C  6ED9               	movwf	fsr2l,c
  3187  000D6E  0E00               	movlw	high _PREDEFINED
  3188  000D70  2010               	addwfc	(_preLetterCount+1)^0,w,c
  3189  000D72  6EDA               	movwf	fsr2h,c
  3190  000D74  50DF               	movf	indf2,w,c
  3191  000D76  ECF5  F014         	call	_LcdData
  3192  000D7A                     
  3193                           ;the3.c: 706:       LcdCmd(0b00010000);
  3194  000D7A  0E10               	movlw	16
  3195  000D7C  EC0B  F015         	call	_LcdCmd
  3196                           
  3197                           ;the3.c: 707:     }
  3198  000D80  EFB5  F007         	goto	l4302
  3199  000D84                     l4230:
  3200  000D84  0E07               	movlw	7
  3201  000D86  1811               	xorwf	_currentLedIndex^0,w,c
  3202  000D88  1012               	iorwf	(_currentLedIndex+1)^0,w,c
  3203  000D8A  A4D8               	btfss	status,2,c
  3204  000D8C  EFCA  F006         	goto	u5791
  3205  000D90  EFCC  F006         	goto	u5790
  3206  000D94                     u5791:
  3207  000D94  EFDD  F006         	goto	l4238
  3208  000D98                     u5790:
  3209  000D98                     
  3210                           ;the3.c: 709:     {;the3.c: 710:       LcdCmd(0x87);
  3211  000D98  0E87               	movlw	135
  3212  000D9A  EC0B  F015         	call	_LcdCmd
  3213  000D9E                     
  3214                           ;the3.c: 711:       LcdData(PREDEFINED[preLetterCount]);
  3215  000D9E  0E60               	movlw	low _PREDEFINED
  3216  000DA0  240F               	addwf	_preLetterCount^0,w,c
  3217  000DA2  6ED9               	movwf	fsr2l,c
  3218  000DA4  0E00               	movlw	high _PREDEFINED
  3219  000DA6  2010               	addwfc	(_preLetterCount+1)^0,w,c
  3220  000DA8  6EDA               	movwf	fsr2h,c
  3221  000DAA  50DF               	movf	indf2,w,c
  3222  000DAC  ECF5  F014         	call	_LcdData
  3223  000DB0                     
  3224                           ;the3.c: 712:       LcdCmd(0b00010000);
  3225  000DB0  0E10               	movlw	16
  3226  000DB2  EC0B  F015         	call	_LcdCmd
  3227                           
  3228                           ;the3.c: 713:     }
  3229  000DB6  EFB5  F007         	goto	l4302
  3230  000DBA                     l4238:
  3231  000DBA  0E08               	movlw	8
  3232  000DBC  1811               	xorwf	_currentLedIndex^0,w,c
  3233  000DBE  1012               	iorwf	(_currentLedIndex+1)^0,w,c
  3234  000DC0  A4D8               	btfss	status,2,c
  3235  000DC2  EFE5  F006         	goto	u5801
  3236  000DC6  EFE7  F006         	goto	u5800
  3237  000DCA                     u5801:
  3238  000DCA  EFF8  F006         	goto	l4246
  3239  000DCE                     u5800:
  3240  000DCE                     
  3241                           ;the3.c: 715:     {;the3.c: 716:       LcdCmd(0x88);
  3242  000DCE  0E88               	movlw	136
  3243  000DD0  EC0B  F015         	call	_LcdCmd
  3244  000DD4                     
  3245                           ;the3.c: 717:       LcdData(PREDEFINED[preLetterCount]);
  3246  000DD4  0E60               	movlw	low _PREDEFINED
  3247  000DD6  240F               	addwf	_preLetterCount^0,w,c
  3248  000DD8  6ED9               	movwf	fsr2l,c
  3249  000DDA  0E00               	movlw	high _PREDEFINED
  3250  000DDC  2010               	addwfc	(_preLetterCount+1)^0,w,c
  3251  000DDE  6EDA               	movwf	fsr2h,c
  3252  000DE0  50DF               	movf	indf2,w,c
  3253  000DE2  ECF5  F014         	call	_LcdData
  3254  000DE6                     
  3255                           ;the3.c: 718:       LcdCmd(0b00010000);
  3256  000DE6  0E10               	movlw	16
  3257  000DE8  EC0B  F015         	call	_LcdCmd
  3258                           
  3259                           ;the3.c: 719:     }
  3260  000DEC  EFB5  F007         	goto	l4302
  3261  000DF0                     l4246:
  3262  000DF0  0E09               	movlw	9
  3263  000DF2  1811               	xorwf	_currentLedIndex^0,w,c
  3264  000DF4  1012               	iorwf	(_currentLedIndex+1)^0,w,c
  3265  000DF6  A4D8               	btfss	status,2,c
  3266  000DF8  EF00  F007         	goto	u5811
  3267  000DFC  EF02  F007         	goto	u5810
  3268  000E00                     u5811:
  3269  000E00  EF13  F007         	goto	l4254
  3270  000E04                     u5810:
  3271  000E04                     
  3272                           ;the3.c: 721:     {;the3.c: 722:       LcdCmd(0x89);
  3273  000E04  0E89               	movlw	137
  3274  000E06  EC0B  F015         	call	_LcdCmd
  3275  000E0A                     
  3276                           ;the3.c: 723:       LcdData(PREDEFINED[preLetterCount]);
  3277  000E0A  0E60               	movlw	low _PREDEFINED
  3278  000E0C  240F               	addwf	_preLetterCount^0,w,c
  3279  000E0E  6ED9               	movwf	fsr2l,c
  3280  000E10  0E00               	movlw	high _PREDEFINED
  3281  000E12  2010               	addwfc	(_preLetterCount+1)^0,w,c
  3282  000E14  6EDA               	movwf	fsr2h,c
  3283  000E16  50DF               	movf	indf2,w,c
  3284  000E18  ECF5  F014         	call	_LcdData
  3285  000E1C                     
  3286                           ;the3.c: 724:       LcdCmd(0b00010000);
  3287  000E1C  0E10               	movlw	16
  3288  000E1E  EC0B  F015         	call	_LcdCmd
  3289                           
  3290                           ;the3.c: 725:     }
  3291  000E22  EFB5  F007         	goto	l4302
  3292  000E26                     l4254:
  3293  000E26  0E0A               	movlw	10
  3294  000E28  1811               	xorwf	_currentLedIndex^0,w,c
  3295  000E2A  1012               	iorwf	(_currentLedIndex+1)^0,w,c
  3296  000E2C  A4D8               	btfss	status,2,c
  3297  000E2E  EF1B  F007         	goto	u5821
  3298  000E32  EF1D  F007         	goto	u5820
  3299  000E36                     u5821:
  3300  000E36  EF2E  F007         	goto	l4262
  3301  000E3A                     u5820:
  3302  000E3A                     
  3303                           ;the3.c: 727:     {;the3.c: 728:       LcdCmd(0x8a);
  3304  000E3A  0E8A               	movlw	138
  3305  000E3C  EC0B  F015         	call	_LcdCmd
  3306  000E40                     
  3307                           ;the3.c: 729:       LcdData(PREDEFINED[preLetterCount]);
  3308  000E40  0E60               	movlw	low _PREDEFINED
  3309  000E42  240F               	addwf	_preLetterCount^0,w,c
  3310  000E44  6ED9               	movwf	fsr2l,c
  3311  000E46  0E00               	movlw	high _PREDEFINED
  3312  000E48  2010               	addwfc	(_preLetterCount+1)^0,w,c
  3313  000E4A  6EDA               	movwf	fsr2h,c
  3314  000E4C  50DF               	movf	indf2,w,c
  3315  000E4E  ECF5  F014         	call	_LcdData
  3316  000E52                     
  3317                           ;the3.c: 730:       LcdCmd(0b00010000);
  3318  000E52  0E10               	movlw	16
  3319  000E54  EC0B  F015         	call	_LcdCmd
  3320                           
  3321                           ;the3.c: 731:     }
  3322  000E58  EFB5  F007         	goto	l4302
  3323  000E5C                     l4262:
  3324  000E5C  0E0B               	movlw	11
  3325  000E5E  1811               	xorwf	_currentLedIndex^0,w,c
  3326  000E60  1012               	iorwf	(_currentLedIndex+1)^0,w,c
  3327  000E62  A4D8               	btfss	status,2,c
  3328  000E64  EF36  F007         	goto	u5831
  3329  000E68  EF38  F007         	goto	u5830
  3330  000E6C                     u5831:
  3331  000E6C  EF49  F007         	goto	l4270
  3332  000E70                     u5830:
  3333  000E70                     
  3334                           ;the3.c: 733:     {;the3.c: 734:       LcdCmd(0x8b);
  3335  000E70  0E8B               	movlw	139
  3336  000E72  EC0B  F015         	call	_LcdCmd
  3337  000E76                     
  3338                           ;the3.c: 735:       LcdData(PREDEFINED[preLetterCount]);
  3339  000E76  0E60               	movlw	low _PREDEFINED
  3340  000E78  240F               	addwf	_preLetterCount^0,w,c
  3341  000E7A  6ED9               	movwf	fsr2l,c
  3342  000E7C  0E00               	movlw	high _PREDEFINED
  3343  000E7E  2010               	addwfc	(_preLetterCount+1)^0,w,c
  3344  000E80  6EDA               	movwf	fsr2h,c
  3345  000E82  50DF               	movf	indf2,w,c
  3346  000E84  ECF5  F014         	call	_LcdData
  3347  000E88                     
  3348                           ;the3.c: 736:       LcdCmd(0b00010000);
  3349  000E88  0E10               	movlw	16
  3350  000E8A  EC0B  F015         	call	_LcdCmd
  3351                           
  3352                           ;the3.c: 737:     }
  3353  000E8E  EFB5  F007         	goto	l4302
  3354  000E92                     l4270:
  3355  000E92  0E0C               	movlw	12
  3356  000E94  1811               	xorwf	_currentLedIndex^0,w,c
  3357  000E96  1012               	iorwf	(_currentLedIndex+1)^0,w,c
  3358  000E98  A4D8               	btfss	status,2,c
  3359  000E9A  EF51  F007         	goto	u5841
  3360  000E9E  EF53  F007         	goto	u5840
  3361  000EA2                     u5841:
  3362  000EA2  EF64  F007         	goto	l4278
  3363  000EA6                     u5840:
  3364  000EA6                     
  3365                           ;the3.c: 739:     {;the3.c: 740:       LcdCmd(0x8c);
  3366  000EA6  0E8C               	movlw	140
  3367  000EA8  EC0B  F015         	call	_LcdCmd
  3368  000EAC                     
  3369                           ;the3.c: 741:       LcdData(PREDEFINED[preLetterCount]);
  3370  000EAC  0E60               	movlw	low _PREDEFINED
  3371  000EAE  240F               	addwf	_preLetterCount^0,w,c
  3372  000EB0  6ED9               	movwf	fsr2l,c
  3373  000EB2  0E00               	movlw	high _PREDEFINED
  3374  000EB4  2010               	addwfc	(_preLetterCount+1)^0,w,c
  3375  000EB6  6EDA               	movwf	fsr2h,c
  3376  000EB8  50DF               	movf	indf2,w,c
  3377  000EBA  ECF5  F014         	call	_LcdData
  3378  000EBE                     
  3379                           ;the3.c: 742:       LcdCmd(0b00010000);
  3380  000EBE  0E10               	movlw	16
  3381  000EC0  EC0B  F015         	call	_LcdCmd
  3382                           
  3383                           ;the3.c: 743:     }
  3384  000EC4  EFB5  F007         	goto	l4302
  3385  000EC8                     l4278:
  3386  000EC8  0E0D               	movlw	13
  3387  000ECA  1811               	xorwf	_currentLedIndex^0,w,c
  3388  000ECC  1012               	iorwf	(_currentLedIndex+1)^0,w,c
  3389  000ECE  A4D8               	btfss	status,2,c
  3390  000ED0  EF6C  F007         	goto	u5851
  3391  000ED4  EF6E  F007         	goto	u5850
  3392  000ED8                     u5851:
  3393  000ED8  EF7F  F007         	goto	l4286
  3394  000EDC                     u5850:
  3395  000EDC                     
  3396                           ;the3.c: 745:     {;the3.c: 746:       LcdCmd(0x8d);
  3397  000EDC  0E8D               	movlw	141
  3398  000EDE  EC0B  F015         	call	_LcdCmd
  3399  000EE2                     
  3400                           ;the3.c: 747:       LcdData(PREDEFINED[preLetterCount]);
  3401  000EE2  0E60               	movlw	low _PREDEFINED
  3402  000EE4  240F               	addwf	_preLetterCount^0,w,c
  3403  000EE6  6ED9               	movwf	fsr2l,c
  3404  000EE8  0E00               	movlw	high _PREDEFINED
  3405  000EEA  2010               	addwfc	(_preLetterCount+1)^0,w,c
  3406  000EEC  6EDA               	movwf	fsr2h,c
  3407  000EEE  50DF               	movf	indf2,w,c
  3408  000EF0  ECF5  F014         	call	_LcdData
  3409  000EF4                     
  3410                           ;the3.c: 748:       LcdCmd(0b00010000);
  3411  000EF4  0E10               	movlw	16
  3412  000EF6  EC0B  F015         	call	_LcdCmd
  3413                           
  3414                           ;the3.c: 749:     }
  3415  000EFA  EFB5  F007         	goto	l4302
  3416  000EFE                     l4286:
  3417  000EFE  0E0E               	movlw	14
  3418  000F00  1811               	xorwf	_currentLedIndex^0,w,c
  3419  000F02  1012               	iorwf	(_currentLedIndex+1)^0,w,c
  3420  000F04  A4D8               	btfss	status,2,c
  3421  000F06  EF87  F007         	goto	u5861
  3422  000F0A  EF89  F007         	goto	u5860
  3423  000F0E                     u5861:
  3424  000F0E  EF9A  F007         	goto	l4294
  3425  000F12                     u5860:
  3426  000F12                     
  3427                           ;the3.c: 751:     {;the3.c: 752:       LcdCmd(0x8e);
  3428  000F12  0E8E               	movlw	142
  3429  000F14  EC0B  F015         	call	_LcdCmd
  3430  000F18                     
  3431                           ;the3.c: 753:       LcdData(PREDEFINED[preLetterCount]);
  3432  000F18  0E60               	movlw	low _PREDEFINED
  3433  000F1A  240F               	addwf	_preLetterCount^0,w,c
  3434  000F1C  6ED9               	movwf	fsr2l,c
  3435  000F1E  0E00               	movlw	high _PREDEFINED
  3436  000F20  2010               	addwfc	(_preLetterCount+1)^0,w,c
  3437  000F22  6EDA               	movwf	fsr2h,c
  3438  000F24  50DF               	movf	indf2,w,c
  3439  000F26  ECF5  F014         	call	_LcdData
  3440  000F2A                     
  3441                           ;the3.c: 754:       LcdCmd(0b00010000);
  3442  000F2A  0E10               	movlw	16
  3443  000F2C  EC0B  F015         	call	_LcdCmd
  3444                           
  3445                           ;the3.c: 755:     }
  3446  000F30  EFB5  F007         	goto	l4302
  3447  000F34                     l4294:
  3448  000F34  0E0F               	movlw	15
  3449  000F36  1811               	xorwf	_currentLedIndex^0,w,c
  3450  000F38  1012               	iorwf	(_currentLedIndex+1)^0,w,c
  3451  000F3A  A4D8               	btfss	status,2,c
  3452  000F3C  EFA2  F007         	goto	u5871
  3453  000F40  EFA4  F007         	goto	u5870
  3454  000F44                     u5871:
  3455  000F44  EFB5  F007         	goto	l453
  3456  000F48                     u5870:
  3457  000F48                     
  3458                           ;the3.c: 757:     {;the3.c: 758:       LcdCmd(0x8f);
  3459  000F48  0E8F               	movlw	143
  3460  000F4A  EC0B  F015         	call	_LcdCmd
  3461  000F4E                     
  3462                           ;the3.c: 759:       LcdData(PREDEFINED[preLetterCount]);
  3463  000F4E  0E60               	movlw	low _PREDEFINED
  3464  000F50  240F               	addwf	_preLetterCount^0,w,c
  3465  000F52  6ED9               	movwf	fsr2l,c
  3466  000F54  0E00               	movlw	high _PREDEFINED
  3467  000F56  2010               	addwfc	(_preLetterCount+1)^0,w,c
  3468  000F58  6EDA               	movwf	fsr2h,c
  3469  000F5A  50DF               	movf	indf2,w,c
  3470  000F5C  ECF5  F014         	call	_LcdData
  3471  000F60                     
  3472                           ;the3.c: 760:       LcdCmd(0b00010000);
  3473  000F60  0E10               	movlw	16
  3474  000F62  EC0B  F015         	call	_LcdCmd
  3475  000F66  EFB5  F007         	goto	l4302
  3476  000F6A                     l453:
  3477  000F6A                     l4302:
  3478                           
  3479                           ;the3.c: 762:     lcdChars[currentLedIndex] = PREDEFINED[preLetterCount];
  3480  000F6A  0E60               	movlw	low _PREDEFINED
  3481  000F6C  240F               	addwf	_preLetterCount^0,w,c
  3482  000F6E  6ED9               	movwf	fsr2l,c
  3483  000F70  0E00               	movlw	high _PREDEFINED
  3484  000F72  2010               	addwfc	(_preLetterCount+1)^0,w,c
  3485  000F74  6EDA               	movwf	fsr2h,c
  3486  000F76  0EA6               	movlw	low _lcdChars
  3487  000F78  2411               	addwf	_currentLedIndex^0,w,c
  3488  000F7A  6EE1               	movwf	fsr1l,c
  3489  000F7C  0E00               	movlw	high _lcdChars
  3490  000F7E  2012               	addwfc	(_currentLedIndex+1)^0,w,c
  3491  000F80  6EE2               	movwf	fsr1h,c
  3492  000F82  CFDF FFE7          	movff	indf2,indf1
  3493                           
  3494                           ;the3.c: 763:   }
  3495  000F86  EF53  F009         	goto	l491
  3496  000F8A                     l4304:
  3497                           
  3498                           ;the3.c: 765:   {;the3.c: 767:     if (currentLedIndex == 0)
  3499  000F8A  5011               	movf	_currentLedIndex^0,w,c
  3500  000F8C  1012               	iorwf	(_currentLedIndex+1)^0,w,c
  3501  000F8E  A4D8               	btfss	status,2,c
  3502  000F90  EFCC  F007         	goto	u5881
  3503  000F94  EFCE  F007         	goto	u5880
  3504  000F98                     u5881:
  3505  000F98  EFDD  F007         	goto	l4310
  3506  000F9C                     u5880:
  3507  000F9C                     
  3508                           ;the3.c: 768:     {;the3.c: 769:       LcdCmd(0x80);
  3509  000F9C  0E80               	movlw	128
  3510  000F9E  EC0B  F015         	call	_LcdCmd
  3511                           
  3512                           ;the3.c: 770:       LcdData(customCharCount);
  3513  000FA2  500D               	movf	_customCharCount^0,w,c
  3514  000FA4  ECF5  F014         	call	_LcdData
  3515                           
  3516                           ;the3.c: 771:       LcdCmd(0b00010000);
  3517  000FA8  0E10               	movlw	16
  3518  000FAA  EC0B  F015         	call	_LcdCmd
  3519  000FAE                     
  3520                           ;the3.c: 772:       customArrayInfo[0] = customCharCount;
  3521  000FAE  C00D  F086         	movff	_customCharCount,_customArrayInfo
  3522  000FB2  C00E  F087         	movff	_customCharCount+1,_customArrayInfo+1
  3523                           
  3524                           ;the3.c: 773:     }
  3525  000FB6  EF53  F009         	goto	l491
  3526  000FBA                     l4310:
  3527  000FBA  0411               	decf	_currentLedIndex^0,w,c
  3528  000FBC  1012               	iorwf	(_currentLedIndex+1)^0,w,c
  3529  000FBE  A4D8               	btfss	status,2,c
  3530  000FC0  EFE4  F007         	goto	u5891
  3531  000FC4  EFE6  F007         	goto	u5890
  3532  000FC8                     u5891:
  3533  000FC8  EFF5  F007         	goto	l4316
  3534  000FCC                     u5890:
  3535  000FCC                     
  3536                           ;the3.c: 775:     {;the3.c: 776:       LcdCmd(0x81);
  3537  000FCC  0E81               	movlw	129
  3538  000FCE  EC0B  F015         	call	_LcdCmd
  3539                           
  3540                           ;the3.c: 777:       LcdData(customCharCount);
  3541  000FD2  500D               	movf	_customCharCount^0,w,c
  3542  000FD4  ECF5  F014         	call	_LcdData
  3543                           
  3544                           ;the3.c: 778:       LcdCmd(0b00010000);
  3545  000FD8  0E10               	movlw	16
  3546  000FDA  EC0B  F015         	call	_LcdCmd
  3547  000FDE                     
  3548                           ;the3.c: 779:       customArrayInfo[1] = customCharCount;
  3549  000FDE  C00D  F088         	movff	_customCharCount,_customArrayInfo+2
  3550  000FE2  C00E  F089         	movff	_customCharCount+1,_customArrayInfo+3
  3551                           
  3552                           ;the3.c: 780:     }
  3553  000FE6  EF53  F009         	goto	l491
  3554  000FEA                     l4316:
  3555  000FEA  0E02               	movlw	2
  3556  000FEC  1811               	xorwf	_currentLedIndex^0,w,c
  3557  000FEE  1012               	iorwf	(_currentLedIndex+1)^0,w,c
  3558  000FF0  A4D8               	btfss	status,2,c
  3559  000FF2  EFFD  F007         	goto	u5901
  3560  000FF6  EFFF  F007         	goto	u5900
  3561  000FFA                     u5901:
  3562  000FFA  EF0E  F008         	goto	l4322
  3563  000FFE                     u5900:
  3564  000FFE                     
  3565                           ;the3.c: 782:     {;the3.c: 783:       LcdCmd(0x82);
  3566  000FFE  0E82               	movlw	130
  3567  001000  EC0B  F015         	call	_LcdCmd
  3568                           
  3569                           ;the3.c: 784:       LcdData(customCharCount);
  3570  001004  500D               	movf	_customCharCount^0,w,c
  3571  001006  ECF5  F014         	call	_LcdData
  3572                           
  3573                           ;the3.c: 785:       LcdCmd(0b00010000);
  3574  00100A  0E10               	movlw	16
  3575  00100C  EC0B  F015         	call	_LcdCmd
  3576  001010                     
  3577                           ;the3.c: 786:       customArrayInfo[2] = customCharCount;
  3578  001010  C00D  F08A         	movff	_customCharCount,_customArrayInfo+4
  3579  001014  C00E  F08B         	movff	_customCharCount+1,_customArrayInfo+5
  3580                           
  3581                           ;the3.c: 787:     }
  3582  001018  EF53  F009         	goto	l491
  3583  00101C                     l4322:
  3584  00101C  0E03               	movlw	3
  3585  00101E  1811               	xorwf	_currentLedIndex^0,w,c
  3586  001020  1012               	iorwf	(_currentLedIndex+1)^0,w,c
  3587  001022  A4D8               	btfss	status,2,c
  3588  001024  EF16  F008         	goto	u5911
  3589  001028  EF18  F008         	goto	u5910
  3590  00102C                     u5911:
  3591  00102C  EF27  F008         	goto	l4328
  3592  001030                     u5910:
  3593  001030                     
  3594                           ;the3.c: 789:     {;the3.c: 790:       LcdCmd(0x83);
  3595  001030  0E83               	movlw	131
  3596  001032  EC0B  F015         	call	_LcdCmd
  3597                           
  3598                           ;the3.c: 791:       LcdData(customCharCount);
  3599  001036  500D               	movf	_customCharCount^0,w,c
  3600  001038  ECF5  F014         	call	_LcdData
  3601                           
  3602                           ;the3.c: 792:       LcdCmd(0b00010000);
  3603  00103C  0E10               	movlw	16
  3604  00103E  EC0B  F015         	call	_LcdCmd
  3605  001042                     
  3606                           ;the3.c: 793:       customArrayInfo[3] = customCharCount;
  3607  001042  C00D  F08C         	movff	_customCharCount,_customArrayInfo+6
  3608  001046  C00E  F08D         	movff	_customCharCount+1,_customArrayInfo+7
  3609                           
  3610                           ;the3.c: 794:     }
  3611  00104A  EF53  F009         	goto	l491
  3612  00104E                     l4328:
  3613  00104E  0E04               	movlw	4
  3614  001050  1811               	xorwf	_currentLedIndex^0,w,c
  3615  001052  1012               	iorwf	(_currentLedIndex+1)^0,w,c
  3616  001054  A4D8               	btfss	status,2,c
  3617  001056  EF2F  F008         	goto	u5921
  3618  00105A  EF31  F008         	goto	u5920
  3619  00105E                     u5921:
  3620  00105E  EF40  F008         	goto	l4334
  3621  001062                     u5920:
  3622  001062                     
  3623                           ;the3.c: 796:     {;the3.c: 797:       LcdCmd(0x84);
  3624  001062  0E84               	movlw	132
  3625  001064  EC0B  F015         	call	_LcdCmd
  3626                           
  3627                           ;the3.c: 798:       LcdData(customCharCount);
  3628  001068  500D               	movf	_customCharCount^0,w,c
  3629  00106A  ECF5  F014         	call	_LcdData
  3630                           
  3631                           ;the3.c: 799:       LcdCmd(0b00010000);
  3632  00106E  0E10               	movlw	16
  3633  001070  EC0B  F015         	call	_LcdCmd
  3634  001074                     
  3635                           ;the3.c: 800:       customArrayInfo[4] = customCharCount;
  3636  001074  C00D  F08E         	movff	_customCharCount,_customArrayInfo+8
  3637  001078  C00E  F08F         	movff	_customCharCount+1,_customArrayInfo+9
  3638                           
  3639                           ;the3.c: 801:     }
  3640  00107C  EF53  F009         	goto	l491
  3641  001080                     l4334:
  3642  001080  0E05               	movlw	5
  3643  001082  1811               	xorwf	_currentLedIndex^0,w,c
  3644  001084  1012               	iorwf	(_currentLedIndex+1)^0,w,c
  3645  001086  A4D8               	btfss	status,2,c
  3646  001088  EF48  F008         	goto	u5931
  3647  00108C  EF4A  F008         	goto	u5930
  3648  001090                     u5931:
  3649  001090  EF59  F008         	goto	l4340
  3650  001094                     u5930:
  3651  001094                     
  3652                           ;the3.c: 803:     {;the3.c: 804:       LcdCmd(0x85);
  3653  001094  0E85               	movlw	133
  3654  001096  EC0B  F015         	call	_LcdCmd
  3655                           
  3656                           ;the3.c: 805:       LcdData(customCharCount);
  3657  00109A  500D               	movf	_customCharCount^0,w,c
  3658  00109C  ECF5  F014         	call	_LcdData
  3659                           
  3660                           ;the3.c: 806:       LcdCmd(0b00010000);
  3661  0010A0  0E10               	movlw	16
  3662  0010A2  EC0B  F015         	call	_LcdCmd
  3663  0010A6                     
  3664                           ;the3.c: 807:       customArrayInfo[5] = customCharCount;
  3665  0010A6  C00D  F090         	movff	_customCharCount,_customArrayInfo+10
  3666  0010AA  C00E  F091         	movff	_customCharCount+1,_customArrayInfo+11
  3667                           
  3668                           ;the3.c: 808:     }
  3669  0010AE  EF53  F009         	goto	l491
  3670  0010B2                     l4340:
  3671  0010B2  0E06               	movlw	6
  3672  0010B4  1811               	xorwf	_currentLedIndex^0,w,c
  3673  0010B6  1012               	iorwf	(_currentLedIndex+1)^0,w,c
  3674  0010B8  A4D8               	btfss	status,2,c
  3675  0010BA  EF61  F008         	goto	u5941
  3676  0010BE  EF63  F008         	goto	u5940
  3677  0010C2                     u5941:
  3678  0010C2  EF72  F008         	goto	l4346
  3679  0010C6                     u5940:
  3680  0010C6                     
  3681                           ;the3.c: 810:     {;the3.c: 811:       LcdCmd(0x86);
  3682  0010C6  0E86               	movlw	134
  3683  0010C8  EC0B  F015         	call	_LcdCmd
  3684                           
  3685                           ;the3.c: 812:       LcdData(customCharCount);
  3686  0010CC  500D               	movf	_customCharCount^0,w,c
  3687  0010CE  ECF5  F014         	call	_LcdData
  3688                           
  3689                           ;the3.c: 813:       LcdCmd(0b00010000);
  3690  0010D2  0E10               	movlw	16
  3691  0010D4  EC0B  F015         	call	_LcdCmd
  3692  0010D8                     
  3693                           ;the3.c: 814:       customArrayInfo[6] = customCharCount;
  3694  0010D8  C00D  F092         	movff	_customCharCount,_customArrayInfo+12
  3695  0010DC  C00E  F093         	movff	_customCharCount+1,_customArrayInfo+13
  3696                           
  3697                           ;the3.c: 815:     }
  3698  0010E0  EF53  F009         	goto	l491
  3699  0010E4                     l4346:
  3700  0010E4  0E07               	movlw	7
  3701  0010E6  1811               	xorwf	_currentLedIndex^0,w,c
  3702  0010E8  1012               	iorwf	(_currentLedIndex+1)^0,w,c
  3703  0010EA  A4D8               	btfss	status,2,c
  3704  0010EC  EF7A  F008         	goto	u5951
  3705  0010F0  EF7C  F008         	goto	u5950
  3706  0010F4                     u5951:
  3707  0010F4  EF8B  F008         	goto	l4352
  3708  0010F8                     u5950:
  3709  0010F8                     
  3710                           ;the3.c: 817:     {;the3.c: 818:       LcdCmd(0x87);
  3711  0010F8  0E87               	movlw	135
  3712  0010FA  EC0B  F015         	call	_LcdCmd
  3713                           
  3714                           ;the3.c: 819:       LcdData(customCharCount);
  3715  0010FE  500D               	movf	_customCharCount^0,w,c
  3716  001100  ECF5  F014         	call	_LcdData
  3717                           
  3718                           ;the3.c: 820:       LcdCmd(0b00010000);
  3719  001104  0E10               	movlw	16
  3720  001106  EC0B  F015         	call	_LcdCmd
  3721  00110A                     
  3722                           ;the3.c: 821:       customArrayInfo[7] = customCharCount;
  3723  00110A  C00D  F094         	movff	_customCharCount,_customArrayInfo+14
  3724  00110E  C00E  F095         	movff	_customCharCount+1,_customArrayInfo+15
  3725                           
  3726                           ;the3.c: 822:     }
  3727  001112  EF53  F009         	goto	l491
  3728  001116                     l4352:
  3729  001116  0E08               	movlw	8
  3730  001118  1811               	xorwf	_currentLedIndex^0,w,c
  3731  00111A  1012               	iorwf	(_currentLedIndex+1)^0,w,c
  3732  00111C  A4D8               	btfss	status,2,c
  3733  00111E  EF93  F008         	goto	u5961
  3734  001122  EF95  F008         	goto	u5960
  3735  001126                     u5961:
  3736  001126  EFA4  F008         	goto	l4358
  3737  00112A                     u5960:
  3738  00112A                     
  3739                           ;the3.c: 824:     {;the3.c: 825:       LcdCmd(0x88);
  3740  00112A  0E88               	movlw	136
  3741  00112C  EC0B  F015         	call	_LcdCmd
  3742                           
  3743                           ;the3.c: 826:       LcdData(customCharCount);
  3744  001130  500D               	movf	_customCharCount^0,w,c
  3745  001132  ECF5  F014         	call	_LcdData
  3746                           
  3747                           ;the3.c: 827:       LcdCmd(0b00010000);
  3748  001136  0E10               	movlw	16
  3749  001138  EC0B  F015         	call	_LcdCmd
  3750  00113C                     
  3751                           ;the3.c: 828:       customArrayInfo[8] = customCharCount;
  3752  00113C  C00D  F096         	movff	_customCharCount,_customArrayInfo+16
  3753  001140  C00E  F097         	movff	_customCharCount+1,_customArrayInfo+17
  3754                           
  3755                           ;the3.c: 829:     }
  3756  001144  EF53  F009         	goto	l491
  3757  001148                     l4358:
  3758  001148  0E09               	movlw	9
  3759  00114A  1811               	xorwf	_currentLedIndex^0,w,c
  3760  00114C  1012               	iorwf	(_currentLedIndex+1)^0,w,c
  3761  00114E  A4D8               	btfss	status,2,c
  3762  001150  EFAC  F008         	goto	u5971
  3763  001154  EFAE  F008         	goto	u5970
  3764  001158                     u5971:
  3765  001158  EFBD  F008         	goto	l4364
  3766  00115C                     u5970:
  3767  00115C                     
  3768                           ;the3.c: 831:     {;the3.c: 832:       LcdCmd(0x89);
  3769  00115C  0E89               	movlw	137
  3770  00115E  EC0B  F015         	call	_LcdCmd
  3771                           
  3772                           ;the3.c: 833:       LcdData(customCharCount);
  3773  001162  500D               	movf	_customCharCount^0,w,c
  3774  001164  ECF5  F014         	call	_LcdData
  3775                           
  3776                           ;the3.c: 834:       LcdCmd(0b00010000);
  3777  001168  0E10               	movlw	16
  3778  00116A  EC0B  F015         	call	_LcdCmd
  3779  00116E                     
  3780                           ;the3.c: 835:       customArrayInfo[9] = customCharCount;
  3781  00116E  C00D  F098         	movff	_customCharCount,_customArrayInfo+18
  3782  001172  C00E  F099         	movff	_customCharCount+1,_customArrayInfo+19
  3783                           
  3784                           ;the3.c: 836:     }
  3785  001176  EF53  F009         	goto	l491
  3786  00117A                     l4364:
  3787  00117A  0E0A               	movlw	10
  3788  00117C  1811               	xorwf	_currentLedIndex^0,w,c
  3789  00117E  1012               	iorwf	(_currentLedIndex+1)^0,w,c
  3790  001180  A4D8               	btfss	status,2,c
  3791  001182  EFC5  F008         	goto	u5981
  3792  001186  EFC7  F008         	goto	u5980
  3793  00118A                     u5981:
  3794  00118A  EFD6  F008         	goto	l4370
  3795  00118E                     u5980:
  3796  00118E                     
  3797                           ;the3.c: 838:     {;the3.c: 839:       LcdCmd(0x8a);
  3798  00118E  0E8A               	movlw	138
  3799  001190  EC0B  F015         	call	_LcdCmd
  3800                           
  3801                           ;the3.c: 840:       LcdData(customCharCount);
  3802  001194  500D               	movf	_customCharCount^0,w,c
  3803  001196  ECF5  F014         	call	_LcdData
  3804                           
  3805                           ;the3.c: 841:       LcdCmd(0b00010000);
  3806  00119A  0E10               	movlw	16
  3807  00119C  EC0B  F015         	call	_LcdCmd
  3808  0011A0                     
  3809                           ;the3.c: 842:       customArrayInfo[10] = customCharCount;
  3810  0011A0  C00D  F09A         	movff	_customCharCount,_customArrayInfo+20
  3811  0011A4  C00E  F09B         	movff	_customCharCount+1,_customArrayInfo+21
  3812                           
  3813                           ;the3.c: 843:     }
  3814  0011A8  EF53  F009         	goto	l491
  3815  0011AC                     l4370:
  3816  0011AC  0E0B               	movlw	11
  3817  0011AE  1811               	xorwf	_currentLedIndex^0,w,c
  3818  0011B0  1012               	iorwf	(_currentLedIndex+1)^0,w,c
  3819  0011B2  A4D8               	btfss	status,2,c
  3820  0011B4  EFDE  F008         	goto	u5991
  3821  0011B8  EFE0  F008         	goto	u5990
  3822  0011BC                     u5991:
  3823  0011BC  EFEF  F008         	goto	l4376
  3824  0011C0                     u5990:
  3825  0011C0                     
  3826                           ;the3.c: 845:     {;the3.c: 846:       LcdCmd(0x8b);
  3827  0011C0  0E8B               	movlw	139
  3828  0011C2  EC0B  F015         	call	_LcdCmd
  3829                           
  3830                           ;the3.c: 847:       LcdData(customCharCount);
  3831  0011C6  500D               	movf	_customCharCount^0,w,c
  3832  0011C8  ECF5  F014         	call	_LcdData
  3833                           
  3834                           ;the3.c: 848:       LcdCmd(0b00010000);
  3835  0011CC  0E10               	movlw	16
  3836  0011CE  EC0B  F015         	call	_LcdCmd
  3837  0011D2                     
  3838                           ;the3.c: 849:       customArrayInfo[11] = customCharCount;
  3839  0011D2  C00D  F09C         	movff	_customCharCount,_customArrayInfo+22
  3840  0011D6  C00E  F09D         	movff	_customCharCount+1,_customArrayInfo+23
  3841                           
  3842                           ;the3.c: 850:     }
  3843  0011DA  EF53  F009         	goto	l491
  3844  0011DE                     l4376:
  3845  0011DE  0E0C               	movlw	12
  3846  0011E0  1811               	xorwf	_currentLedIndex^0,w,c
  3847  0011E2  1012               	iorwf	(_currentLedIndex+1)^0,w,c
  3848  0011E4  A4D8               	btfss	status,2,c
  3849  0011E6  EFF7  F008         	goto	u6001
  3850  0011EA  EFF9  F008         	goto	u6000
  3851  0011EE                     u6001:
  3852  0011EE  EF08  F009         	goto	l4382
  3853  0011F2                     u6000:
  3854  0011F2                     
  3855                           ;the3.c: 852:     {;the3.c: 853:       LcdCmd(0x8c);
  3856  0011F2  0E8C               	movlw	140
  3857  0011F4  EC0B  F015         	call	_LcdCmd
  3858                           
  3859                           ;the3.c: 854:       LcdData(customCharCount);
  3860  0011F8  500D               	movf	_customCharCount^0,w,c
  3861  0011FA  ECF5  F014         	call	_LcdData
  3862                           
  3863                           ;the3.c: 855:       LcdCmd(0b00010000);
  3864  0011FE  0E10               	movlw	16
  3865  001200  EC0B  F015         	call	_LcdCmd
  3866  001204                     
  3867                           ;the3.c: 856:       customArrayInfo[12] = customCharCount;
  3868  001204  C00D  F09E         	movff	_customCharCount,_customArrayInfo+24
  3869  001208  C00E  F09F         	movff	_customCharCount+1,_customArrayInfo+25
  3870                           
  3871                           ;the3.c: 857:     }
  3872  00120C  EF53  F009         	goto	l491
  3873  001210                     l4382:
  3874  001210  0E0D               	movlw	13
  3875  001212  1811               	xorwf	_currentLedIndex^0,w,c
  3876  001214  1012               	iorwf	(_currentLedIndex+1)^0,w,c
  3877  001216  A4D8               	btfss	status,2,c
  3878  001218  EF10  F009         	goto	u6011
  3879  00121C  EF12  F009         	goto	u6010
  3880  001220                     u6011:
  3881  001220  EF21  F009         	goto	l4388
  3882  001224                     u6010:
  3883  001224                     
  3884                           ;the3.c: 859:     {;the3.c: 860:       LcdCmd(0x8d);
  3885  001224  0E8D               	movlw	141
  3886  001226  EC0B  F015         	call	_LcdCmd
  3887                           
  3888                           ;the3.c: 861:       LcdData(customCharCount);
  3889  00122A  500D               	movf	_customCharCount^0,w,c
  3890  00122C  ECF5  F014         	call	_LcdData
  3891                           
  3892                           ;the3.c: 862:       LcdCmd(0b00010000);
  3893  001230  0E10               	movlw	16
  3894  001232  EC0B  F015         	call	_LcdCmd
  3895  001236                     
  3896                           ;the3.c: 863:       customArrayInfo[13] = customCharCount;
  3897  001236  C00D  F0A0         	movff	_customCharCount,_customArrayInfo+26
  3898  00123A  C00E  F0A1         	movff	_customCharCount+1,_customArrayInfo+27
  3899                           
  3900                           ;the3.c: 864:     }
  3901  00123E  EF53  F009         	goto	l491
  3902  001242                     l4388:
  3903  001242  0E0E               	movlw	14
  3904  001244  1811               	xorwf	_currentLedIndex^0,w,c
  3905  001246  1012               	iorwf	(_currentLedIndex+1)^0,w,c
  3906  001248  A4D8               	btfss	status,2,c
  3907  00124A  EF29  F009         	goto	u6021
  3908  00124E  EF2B  F009         	goto	u6020
  3909  001252                     u6021:
  3910  001252  EF3A  F009         	goto	l4394
  3911  001256                     u6020:
  3912  001256                     
  3913                           ;the3.c: 866:     {;the3.c: 867:       LcdCmd(0x8e);
  3914  001256  0E8E               	movlw	142
  3915  001258  EC0B  F015         	call	_LcdCmd
  3916                           
  3917                           ;the3.c: 868:       LcdData(customCharCount);
  3918  00125C  500D               	movf	_customCharCount^0,w,c
  3919  00125E  ECF5  F014         	call	_LcdData
  3920                           
  3921                           ;the3.c: 869:       LcdCmd(0b00010000);
  3922  001262  0E10               	movlw	16
  3923  001264  EC0B  F015         	call	_LcdCmd
  3924  001268                     
  3925                           ;the3.c: 870:       customArrayInfo[14] = customCharCount;
  3926  001268  C00D  F0A2         	movff	_customCharCount,_customArrayInfo+28
  3927  00126C  C00E  F0A3         	movff	_customCharCount+1,_customArrayInfo+29
  3928                           
  3929                           ;the3.c: 871:     }
  3930  001270  EF53  F009         	goto	l491
  3931  001274                     l4394:
  3932  001274  0E0F               	movlw	15
  3933  001276  1811               	xorwf	_currentLedIndex^0,w,c
  3934  001278  1012               	iorwf	(_currentLedIndex+1)^0,w,c
  3935  00127A  A4D8               	btfss	status,2,c
  3936  00127C  EF42  F009         	goto	u6031
  3937  001280  EF44  F009         	goto	u6030
  3938  001284                     u6031:
  3939  001284  EF53  F009         	goto	l485
  3940  001288                     u6030:
  3941  001288                     
  3942                           ;the3.c: 873:     {;the3.c: 874:       LcdCmd(0x8f);
  3943  001288  0E8F               	movlw	143
  3944  00128A  EC0B  F015         	call	_LcdCmd
  3945                           
  3946                           ;the3.c: 875:       LcdData(customCharCount);
  3947  00128E  500D               	movf	_customCharCount^0,w,c
  3948  001290  ECF5  F014         	call	_LcdData
  3949                           
  3950                           ;the3.c: 876:       LcdCmd(0b00010000);
  3951  001294  0E10               	movlw	16
  3952  001296  EC0B  F015         	call	_LcdCmd
  3953  00129A                     
  3954                           ;the3.c: 877:       customArrayInfo[15] = customCharCount;
  3955  00129A  C00D  F0A4         	movff	_customCharCount,_customArrayInfo+30
  3956  00129E  C00E  F0A5         	movff	_customCharCount+1,_customArrayInfo+31
  3957  0012A2  EF53  F009         	goto	l491
  3958  0012A6                     l485:
  3959  0012A6                     l491:
  3960  0012A6  0012               	return		;funcret
  3961  0012A8                     __end_of_LCDdisplay:
  3962                           	callstack 0
  3963                           
  3964 ;; *************** function _CDMcoordHelper *****************
  3965 ;; Defined at:
  3966 ;;		line 579 in file "the3.c"
  3967 ;; Parameters:    Size  Location     Type
  3968 ;;		None
  3969 ;; Auto vars:     Size  Location     Type
  3970 ;;		None
  3971 ;; Return value:  Size  Location     Type
  3972 ;;                  1    wreg      void 
  3973 ;; Registers used:
  3974 ;;		wreg, status,2, status,0
  3975 ;; Tracked objects:
  3976 ;;		On entry : 0/0
  3977 ;;		On exit  : 0/0
  3978 ;;		Unchanged: 0/0
  3979 ;; Data sizes:     COMRAM   BANK0   BANK1   BANK2   BANK3   BANK4   BANK5   BANK6   BANK7   BANK8   BANK9  BANK10  BANK1
      +1  BANK12  BANK13  BANK14  BANK15
  3980 ;;      Params:         0       0       0       0       0       0       0       0       0       0       0       0       
      +0       0       0       0       0
  3981 ;;      Locals:         0       0       0       0       0       0       0       0       0       0       0       0       
      +0       0       0       0       0
  3982 ;;      Temps:          2       0       0       0       0       0       0       0       0       0       0       0       
      +0       0       0       0       0
  3983 ;;      Totals:         2       0       0       0       0       0       0       0       0       0       0       0       
      +0       0       0       0       0
  3984 ;;Total ram usage:        2 bytes
  3985 ;; Hardware stack levels used:    1
  3986 ;; Hardware stack levels required when called:    4
  3987 ;; This function calls:
  3988 ;;		Nothing
  3989 ;; This function is called by:
  3990 ;;		_main
  3991 ;; This function uses a non-reentrant model
  3992 ;;
  3993                           
  3994                           	psect	text19
  3995  001D04                     __ptext19:
  3996                           	callstack 0
  3997  001D04                     _CDMcoordHelper:
  3998                           	callstack 26
  3999  001D04                     
  4000                           ;the3.c: 581:   if (!PORTEbits.RE1 && inp_re1_btn_st == 1)
  4001  001D04  B284               	btfsc	132,1,c	;volatile
  4002  001D06  EF87  F00E         	goto	u2361
  4003  001D0A  EF89  F00E         	goto	u2360
  4004  001D0E                     u2361:
  4005  001D0E  EFAF  F00E         	goto	l399
  4006  001D12                     u2360:
  4007  001D12  0425               	decf	_inp_re1_btn_st^0,w,c
  4008  001D14  A4D8               	btfss	status,2,c
  4009  001D16  EF8F  F00E         	goto	u2371
  4010  001D1A  EF91  F00E         	goto	u2370
  4011  001D1E                     u2371:
  4012  001D1E  EFAF  F00E         	goto	l399
  4013  001D22                     u2370:
  4014  001D22                     
  4015                           ;the3.c: 582:   {;the3.c: 583:     inp_re1_btn_st = 0;
  4016  001D22  0E00               	movlw	0
  4017  001D24  6E25               	movwf	_inp_re1_btn_st^0,c
  4018  001D26                     
  4019                           ;the3.c: 584:     if (yCoord + 1 > 7)
  4020  001D26  501E               	movf	_yCoord^0,w,c
  4021  001D28  6E33               	movwf	??_CDMcoordHelper^0,c
  4022  001D2A  6A34               	clrf	(??_CDMcoordHelper+1)^0,c
  4023  001D2C  0E01               	movlw	1
  4024  001D2E  2633               	addwf	??_CDMcoordHelper^0,f,c
  4025  001D30  0E00               	movlw	0
  4026  001D32  2234               	addwfc	(??_CDMcoordHelper+1)^0,f,c
  4027  001D34  BE34               	btfsc	(??_CDMcoordHelper+1)^0,7,c
  4028  001D36  EFA6  F00E         	goto	u2381
  4029  001D3A  5034               	movf	(??_CDMcoordHelper+1)^0,w,c
  4030  001D3C  E109               	bnz	u2380
  4031  001D3E  0E08               	movlw	8
  4032  001D40  5C33               	subwf	??_CDMcoordHelper^0,w,c
  4033  001D42  A0D8               	btfss	status,0,c
  4034  001D44  EFA6  F00E         	goto	u2381
  4035  001D48  EFA8  F00E         	goto	u2380
  4036  001D4C                     u2381:
  4037  001D4C  EFAC  F00E         	goto	l2320
  4038  001D50                     u2380:
  4039  001D50                     
  4040                           ;the3.c: 585:     {;the3.c: 586:       yCoord = 7;
  4041  001D50  0E07               	movlw	7
  4042  001D52  6E1E               	movwf	_yCoord^0,c
  4043                           
  4044                           ;the3.c: 587:     }
  4045  001D54  EF28  F00F         	goto	l414
  4046  001D58                     l2320:
  4047                           
  4048                           ;the3.c: 589:     {;the3.c: 590:       yCoord++;
  4049  001D58  2A1E               	incf	_yCoord^0,f,c
  4050  001D5A  EF28  F00F         	goto	l414
  4051  001D5E                     l399:
  4052  001D5E  B484               	btfsc	132,2,c	;volatile
  4053  001D60  EFB4  F00E         	goto	u2391
  4054  001D64  EFB6  F00E         	goto	u2390
  4055  001D68                     u2391:
  4056  001D68  EFD6  F00E         	goto	l403
  4057  001D6C                     u2390:
  4058  001D6C  0424               	decf	_inp_re2_btn_st^0,w,c
  4059  001D6E  A4D8               	btfss	status,2,c
  4060  001D70  EFBC  F00E         	goto	u2401
  4061  001D74  EFBE  F00E         	goto	u2400
  4062  001D78                     u2401:
  4063  001D78  EFD6  F00E         	goto	l403
  4064  001D7C                     u2400:
  4065  001D7C                     
  4066                           ;the3.c: 594:   {;the3.c: 595:     inp_re2_btn_st = 0;
  4067  001D7C  0E00               	movlw	0
  4068  001D7E  6E24               	movwf	_inp_re2_btn_st^0,c
  4069  001D80                     
  4070                           ;the3.c: 596:     if (yCoord - 1 < 0)
  4071  001D80  501E               	movf	_yCoord^0,w,c
  4072  001D82  6E33               	movwf	??_CDMcoordHelper^0,c
  4073  001D84  6A34               	clrf	(??_CDMcoordHelper+1)^0,c
  4074  001D86  0EFF               	movlw	255
  4075  001D88  2433               	addwf	??_CDMcoordHelper^0,w,c
  4076  001D8A  0EFF               	movlw	255
  4077  001D8C  2034               	addwfc	(??_CDMcoordHelper+1)^0,w,c
  4078  001D8E  0B80               	andlw	128
  4079  001D90  B4D8               	btfsc	status,2,c
  4080  001D92  EFCD  F00E         	goto	u2411
  4081  001D96  EFCF  F00E         	goto	u2410
  4082  001D9A                     u2411:
  4083  001D9A  EFD3  F00E         	goto	l2330
  4084  001D9E                     u2410:
  4085  001D9E                     
  4086                           ;the3.c: 597:     {;the3.c: 598:       yCoord = 0;
  4087  001D9E  0E00               	movlw	0
  4088  001DA0  6E1E               	movwf	_yCoord^0,c
  4089                           
  4090                           ;the3.c: 599:     }
  4091  001DA2  EF28  F00F         	goto	l414
  4092  001DA6                     l2330:
  4093                           
  4094                           ;the3.c: 601:     {;the3.c: 602:       yCoord--;
  4095  001DA6  061E               	decf	_yCoord^0,f,c
  4096  001DA8  EF28  F00F         	goto	l414
  4097  001DAC                     l403:
  4098  001DAC  B684               	btfsc	132,3,c	;volatile
  4099  001DAE  EFDB  F00E         	goto	u2421
  4100  001DB2  EFDD  F00E         	goto	u2420
  4101  001DB6                     u2421:
  4102  001DB6  EFFD  F00E         	goto	l407
  4103  001DBA                     u2420:
  4104  001DBA  0423               	decf	_inp_re3_btn_st^0,w,c
  4105  001DBC  A4D8               	btfss	status,2,c
  4106  001DBE  EFE3  F00E         	goto	u2431
  4107  001DC2  EFE5  F00E         	goto	u2430
  4108  001DC6                     u2431:
  4109  001DC6  EFFD  F00E         	goto	l407
  4110  001DCA                     u2430:
  4111  001DCA                     
  4112                           ;the3.c: 606:   {;the3.c: 607:     inp_re3_btn_st = 0;
  4113  001DCA  0E00               	movlw	0
  4114  001DCC  6E23               	movwf	_inp_re3_btn_st^0,c
  4115  001DCE                     
  4116                           ;the3.c: 608:     if (xCoord - 1 < 0)
  4117  001DCE  501F               	movf	_xCoord^0,w,c
  4118  001DD0  6E33               	movwf	??_CDMcoordHelper^0,c
  4119  001DD2  6A34               	clrf	(??_CDMcoordHelper+1)^0,c
  4120  001DD4  0EFF               	movlw	255
  4121  001DD6  2433               	addwf	??_CDMcoordHelper^0,w,c
  4122  001DD8  0EFF               	movlw	255
  4123  001DDA  2034               	addwfc	(??_CDMcoordHelper+1)^0,w,c
  4124  001DDC  0B80               	andlw	128
  4125  001DDE  B4D8               	btfsc	status,2,c
  4126  001DE0  EFF4  F00E         	goto	u2441
  4127  001DE4  EFF6  F00E         	goto	u2440
  4128  001DE8                     u2441:
  4129  001DE8  EFFA  F00E         	goto	l2340
  4130  001DEC                     u2440:
  4131  001DEC                     
  4132                           ;the3.c: 609:     {;the3.c: 610:       xCoord = 0;
  4133  001DEC  0E00               	movlw	0
  4134  001DEE  6E1F               	movwf	_xCoord^0,c
  4135                           
  4136                           ;the3.c: 611:     }
  4137  001DF0  EF28  F00F         	goto	l414
  4138  001DF4                     l2340:
  4139                           
  4140                           ;the3.c: 613:     {;the3.c: 614:       xCoord--;
  4141  001DF4  061F               	decf	_xCoord^0,f,c
  4142  001DF6  EF28  F00F         	goto	l414
  4143  001DFA                     l407:
  4144  001DFA  B084               	btfsc	132,0,c	;volatile
  4145  001DFC  EF02  F00F         	goto	u2451
  4146  001E00  EF04  F00F         	goto	u2450
  4147  001E04                     u2451:
  4148  001E04  EF28  F00F         	goto	l414
  4149  001E08                     u2450:
  4150  001E08  0426               	decf	_inp_re0_btn_st^0,w,c
  4151  001E0A  A4D8               	btfss	status,2,c
  4152  001E0C  EF0A  F00F         	goto	u2461
  4153  001E10  EF0C  F00F         	goto	u2460
  4154  001E14                     u2461:
  4155  001E14  EF28  F00F         	goto	l414
  4156  001E18                     u2460:
  4157  001E18                     
  4158                           ;the3.c: 618:   {;the3.c: 619:     inp_re0_btn_st = 0;
  4159  001E18  0E00               	movlw	0
  4160  001E1A  6E26               	movwf	_inp_re0_btn_st^0,c
  4161  001E1C                     
  4162                           ;the3.c: 620:     if (xCoord + 1 > 3)
  4163  001E1C  501F               	movf	_xCoord^0,w,c
  4164  001E1E  6E33               	movwf	??_CDMcoordHelper^0,c
  4165  001E20  6A34               	clrf	(??_CDMcoordHelper+1)^0,c
  4166  001E22  0E01               	movlw	1
  4167  001E24  2633               	addwf	??_CDMcoordHelper^0,f,c
  4168  001E26  0E00               	movlw	0
  4169  001E28  2234               	addwfc	(??_CDMcoordHelper+1)^0,f,c
  4170  001E2A  BE34               	btfsc	(??_CDMcoordHelper+1)^0,7,c
  4171  001E2C  EF21  F00F         	goto	u2471
  4172  001E30  5034               	movf	(??_CDMcoordHelper+1)^0,w,c
  4173  001E32  E109               	bnz	u2470
  4174  001E34  0E04               	movlw	4
  4175  001E36  5C33               	subwf	??_CDMcoordHelper^0,w,c
  4176  001E38  A0D8               	btfss	status,0,c
  4177  001E3A  EF21  F00F         	goto	u2471
  4178  001E3E  EF23  F00F         	goto	u2470
  4179  001E42                     u2471:
  4180  001E42  EF27  F00F         	goto	l2350
  4181  001E46                     u2470:
  4182  001E46                     
  4183                           ;the3.c: 621:     {;the3.c: 622:       xCoord = 3;
  4184  001E46  0E03               	movlw	3
  4185  001E48  6E1F               	movwf	_xCoord^0,c
  4186                           
  4187                           ;the3.c: 623:     }
  4188  001E4A  EF28  F00F         	goto	l414
  4189  001E4E                     l2350:
  4190                           
  4191                           ;the3.c: 625:     {;the3.c: 626:       xCoord++;
  4192  001E4E  2A1F               	incf	_xCoord^0,f,c
  4193  001E50                     l414:
  4194  001E50  0012               	return		;funcret
  4195  001E52                     __end_of_CDMcoordHelper:
  4196                           	callstack 0
  4197                           
  4198 ;; *************** function _CDM *****************
  4199 ;; Defined at:
  4200 ;;		line 1171 in file "the3.c"
  4201 ;; Parameters:    Size  Location     Type
  4202 ;;		None
  4203 ;; Auto vars:     Size  Location     Type
  4204 ;;  i               2   14[BANK1 ] int 
  4205 ;;  i               2   12[BANK1 ] int 
  4206 ;;  i               2   10[BANK1 ] int 
  4207 ;;  i               2    8[BANK1 ] int 
  4208 ;;  i               2    6[BANK1 ] int 
  4209 ;;  i               2    4[BANK1 ] int 
  4210 ;;  i               2    2[BANK1 ] int 
  4211 ;;  i               2    0[BANK1 ] int 
  4212 ;; Return value:  Size  Location     Type
  4213 ;;                  1    wreg      void 
  4214 ;; Registers used:
  4215 ;;		wreg, fsr2l, fsr2h, status,2, status,0, prodl, prodh, cstack
  4216 ;; Tracked objects:
  4217 ;;		On entry : 0/0
  4218 ;;		On exit  : 0/0
  4219 ;;		Unchanged: 0/0
  4220 ;; Data sizes:     COMRAM   BANK0   BANK1   BANK2   BANK3   BANK4   BANK5   BANK6   BANK7   BANK8   BANK9  BANK10  BANK1
      +1  BANK12  BANK13  BANK14  BANK15
  4221 ;;      Params:         0       0       0       0       0       0       0       0       0       0       0       0       
      +0       0       0       0       0
  4222 ;;      Locals:         0       0      16       0       0       0       0       0       0       0       0       0       
      +0       0       0       0       0
  4223 ;;      Temps:          4       0       0       0       0       0       0       0       0       0       0       0       
      +0       0       0       0       0
  4224 ;;      Totals:         4       0      16       0       0       0       0       0       0       0       0       0       
      +0       0       0       0       0
  4225 ;;Total ram usage:       20 bytes
  4226 ;; Hardware stack levels used:    1
  4227 ;; Hardware stack levels required when called:    6
  4228 ;; This function calls:
  4229 ;;		_CMDledTask
  4230 ;;		_LcdCmd
  4231 ;;		_LcdData
  4232 ;;		_input_task
  4233 ;;		_re4_pressed
  4234 ;;		_startRE0and3
  4235 ;; This function is called by:
  4236 ;;		_main
  4237 ;; This function uses a non-reentrant model
  4238 ;;
  4239                           
  4240                           	psect	text20
  4241  0012A8                     __ptext20:
  4242                           	callstack 0
  4243  0012A8                     _CDM:
  4244                           	callstack 24
  4245  0012A8                     
  4246                           ;the3.c: 1173:   if (customNum == 8)
  4247  0012A8  0E08               	movlw	8
  4248  0012AA  1820               	xorwf	_customNum^0,w,c
  4249  0012AC  A4D8               	btfss	status,2,c
  4250  0012AE  EF5B  F009         	goto	u7771
  4251  0012B2  EF5D  F009         	goto	u7770
  4252  0012B6                     u7771:
  4253  0012B6  EF63  F009         	goto	l5008
  4254  0012BA                     u7770:
  4255  0012BA                     
  4256                           ;the3.c: 1174:   {;the3.c: 1175:     mode = 0;
  4257  0012BA  0E00               	movlw	0
  4258  0012BC  6E0C               	movwf	(_mode+1)^0,c
  4259  0012BE  0E00               	movlw	0
  4260  0012C0  6E0B               	movwf	_mode^0,c
  4261  0012C2  EF91  F00B         	goto	l593
  4262  0012C6                     l5008:
  4263                           
  4264                           ;the3.c: 1178:   startRE0and3();
  4265  0012C6  ECB0  F015         	call	_startRE0and3	;wreg free
  4266                           
  4267                           ;the3.c: 1179:   input_task();
  4268  0012CA  EC4D  F013         	call	_input_task	;wreg free
  4269  0012CE                     
  4270                           ;the3.c: 1181:   if (re4_pressed())
  4271  0012CE  ECD9  F014         	call	_re4_pressed	;wreg free
  4272  0012D2  5033               	movf	?_re4_pressed^0,w,c
  4273  0012D4  1034               	iorwf	(?_re4_pressed+1)^0,w,c
  4274  0012D6  B4D8               	btfsc	status,2,c
  4275  0012D8  EF70  F009         	goto	u7781
  4276  0012DC  EF72  F009         	goto	u7780
  4277  0012E0                     u7781:
  4278  0012E0  EF91  F00B         	goto	l593
  4279  0012E4                     u7780:
  4280  0012E4                     
  4281                           ;the3.c: 1182:   {;the3.c: 1183:     charmap[customNum][yCoord] ^= 1 << (4 - xCoord);
  4282  0012E4  501F               	movf	_xCoord^0,w,c
  4283  0012E6  0804               	sublw	4
  4284  0012E8  6E3A               	movwf	??_CDM^0,c
  4285  0012EA  0E01               	movlw	1
  4286  0012EC  6E3B               	movwf	(??_CDM+1)^0,c
  4287  0012EE  2A3A               	incf	??_CDM^0,f,c
  4288  0012F0  EF7C  F009         	goto	u7794
  4289  0012F4                     u7795:
  4290  0012F4  90D8               	bcf	status,0,c
  4291  0012F6  363B               	rlcf	(??_CDM+1)^0,f,c
  4292  0012F8                     u7794:
  4293  0012F8  2E3A               	decfsz	??_CDM^0,f,c
  4294  0012FA  EF7A  F009         	goto	u7795
  4295  0012FE  5020               	movf	_customNum^0,w,c
  4296  001300  0D08               	mullw	8
  4297  001302  0EB6               	movlw	low _charmap
  4298  001304  6E3C               	movwf	(??_CDM+2)^0,c
  4299  001306  0E00               	movlw	high _charmap
  4300  001308  6E3D               	movwf	(??_CDM+3)^0,c
  4301  00130A  50F3               	movf	243,w,c
  4302  00130C  263C               	addwf	(??_CDM+2)^0,f,c
  4303  00130E  50F4               	movf	244,w,c
  4304  001310  223D               	addwfc	(??_CDM+3)^0,f,c
  4305  001312  501E               	movf	_yCoord^0,w,c
  4306  001314  243C               	addwf	(??_CDM+2)^0,w,c
  4307  001316  6ED9               	movwf	fsr2l,c
  4308  001318  0E00               	movlw	0
  4309  00131A  203D               	addwfc	(??_CDM+3)^0,w,c
  4310  00131C  6EDA               	movwf	fsr2h,c
  4311  00131E  503B               	movf	(??_CDM+1)^0,w,c
  4312  001320  1ADF               	xorwf	indf2,f,c
  4313  001322                     
  4314                           ;the3.c: 1184:     CMDledTask();
  4315  001322  EC09  F000         	call	_CMDledTask	;wreg free
  4316  001326                     
  4317                           ;the3.c: 1185:     if (customNum == 0)
  4318  001326  5020               	movf	_customNum^0,w,c
  4319  001328  A4D8               	btfss	status,2,c
  4320  00132A  EF99  F009         	goto	u7801
  4321  00132E  EF9B  F009         	goto	u7800
  4322  001332                     u7801:
  4323  001332  EFD2  F009         	goto	l5034
  4324  001336                     u7800:
  4325  001336                     
  4326                           ;the3.c: 1186:     {;the3.c: 1187:       LcdCmd(0x40);
  4327  001336  0E40               	movlw	64
  4328  001338  EC0B  F015         	call	_LcdCmd
  4329  00133C                     
  4330                           ;the3.c: 1188:       for (int i = 0; i < 8; i++)
  4331  00133C  0E00               	movlw	0
  4332  00133E  0101               	movlb	1	; () banked
  4333  001340  6F21               	movwf	(CDM@i+1)& (0+255),b
  4334  001342  0E00               	movlw	0
  4335  001344  6F20               	movwf	CDM@i& (0+255),b
  4336  001346                     l5026:
  4337                           
  4338                           ; BSR set to: 1
  4339                           ;the3.c: 1189:       {;the3.c: 1190:         LcdData(charmap[customNum][i]);
  4340  001346  5020               	movf	_customNum^0,w,c
  4341  001348  0D08               	mullw	8
  4342  00134A  0EB6               	movlw	low _charmap
  4343  00134C  6E3A               	movwf	??_CDM^0,c
  4344  00134E  0E00               	movlw	high _charmap
  4345  001350  6E3B               	movwf	(??_CDM+1)^0,c
  4346  001352  50F3               	movf	243,w,c
  4347  001354  263A               	addwf	??_CDM^0,f,c
  4348  001356  50F4               	movf	244,w,c
  4349  001358  223B               	addwfc	(??_CDM+1)^0,f,c
  4350  00135A  5120               	movf	CDM@i& (0+255),w,b
  4351  00135C  243A               	addwf	??_CDM^0,w,c
  4352  00135E  6ED9               	movwf	fsr2l,c
  4353  001360  5121               	movf	(CDM@i+1)& (0+255),w,b
  4354  001362  203B               	addwfc	(??_CDM+1)^0,w,c
  4355  001364  6EDA               	movwf	fsr2h,c
  4356  001366  50DF               	movf	indf2,w,c
  4357  001368  ECF5  F014         	call	_LcdData
  4358  00136C                     
  4359                           ;the3.c: 1191:       }
  4360  00136C  0101               	movlb	1	; () banked
  4361  00136E  4B20               	infsnz	CDM@i& (0+255),f,b
  4362  001370  2B21               	incf	(CDM@i+1)& (0+255),f,b
  4363  001372                     
  4364                           ; BSR set to: 1
  4365  001372  BF21               	btfsc	(CDM@i+1)& (0+255),7,b
  4366  001374  EFC5  F009         	goto	u7811
  4367  001378  5121               	movf	(CDM@i+1)& (0+255),w,b
  4368  00137A  E109               	bnz	u7810
  4369  00137C  0E08               	movlw	8
  4370  00137E  5D20               	subwf	CDM@i& (0+255),w,b
  4371  001380  A0D8               	btfss	status,0,c
  4372  001382  EFC5  F009         	goto	u7811
  4373  001386  EFC7  F009         	goto	u7810
  4374  00138A                     u7811:
  4375  00138A  EFA3  F009         	goto	l5026
  4376  00138E                     u7810:
  4377  00138E                     
  4378                           ; BSR set to: 1
  4379                           ;the3.c: 1192:       LcdCmd(0x80);
  4380  00138E  0E80               	movlw	128
  4381  001390  EC0B  F015         	call	_LcdCmd
  4382                           
  4383                           ;the3.c: 1193:       LcdData(0);
  4384  001394  0E00               	movlw	0
  4385  001396  ECF5  F014         	call	_LcdData
  4386                           
  4387                           ;the3.c: 1194:       LcdCmd(0b00010000);
  4388  00139A  0E10               	movlw	16
  4389  00139C  EC0B  F015         	call	_LcdCmd
  4390                           
  4391                           ;the3.c: 1195:     }
  4392  0013A0  EF91  F00B         	goto	l593
  4393  0013A4                     l5034:
  4394  0013A4  0420               	decf	_customNum^0,w,c
  4395  0013A6  A4D8               	btfss	status,2,c
  4396  0013A8  EFD8  F009         	goto	u7821
  4397  0013AC  EFDA  F009         	goto	u7820
  4398  0013B0                     u7821:
  4399  0013B0  EF11  F00A         	goto	l5052
  4400  0013B4                     u7820:
  4401  0013B4                     
  4402                           ;the3.c: 1197:     {;the3.c: 1198:       LcdCmd(0x48);
  4403  0013B4  0E48               	movlw	72
  4404  0013B6  EC0B  F015         	call	_LcdCmd
  4405  0013BA                     
  4406                           ;the3.c: 1199:       for (int i = 0; i < 8; i++)
  4407  0013BA  0E00               	movlw	0
  4408  0013BC  0101               	movlb	1	; () banked
  4409  0013BE  6F23               	movwf	(CDM@i_810+1)& (0+255),b
  4410  0013C0  0E00               	movlw	0
  4411  0013C2  6F22               	movwf	CDM@i_810& (0+255),b
  4412  0013C4                     l5044:
  4413                           
  4414                           ; BSR set to: 1
  4415                           ;the3.c: 1200:       {;the3.c: 1201:         LcdData(charmap[customNum][i]);
  4416  0013C4  5020               	movf	_customNum^0,w,c
  4417  0013C6  0D08               	mullw	8
  4418  0013C8  0EB6               	movlw	low _charmap
  4419  0013CA  6E3A               	movwf	??_CDM^0,c
  4420  0013CC  0E00               	movlw	high _charmap
  4421  0013CE  6E3B               	movwf	(??_CDM+1)^0,c
  4422  0013D0  50F3               	movf	243,w,c
  4423  0013D2  263A               	addwf	??_CDM^0,f,c
  4424  0013D4  50F4               	movf	244,w,c
  4425  0013D6  223B               	addwfc	(??_CDM+1)^0,f,c
  4426  0013D8  5122               	movf	CDM@i_810& (0+255),w,b
  4427  0013DA  243A               	addwf	??_CDM^0,w,c
  4428  0013DC  6ED9               	movwf	fsr2l,c
  4429  0013DE  5123               	movf	(CDM@i_810+1)& (0+255),w,b
  4430  0013E0  203B               	addwfc	(??_CDM+1)^0,w,c
  4431  0013E2  6EDA               	movwf	fsr2h,c
  4432  0013E4  50DF               	movf	indf2,w,c
  4433  0013E6  ECF5  F014         	call	_LcdData
  4434  0013EA                     
  4435                           ;the3.c: 1202:       }
  4436  0013EA  0101               	movlb	1	; () banked
  4437  0013EC  4B22               	infsnz	CDM@i_810& (0+255),f,b
  4438  0013EE  2B23               	incf	(CDM@i_810+1)& (0+255),f,b
  4439  0013F0                     
  4440                           ; BSR set to: 1
  4441  0013F0  BF23               	btfsc	(CDM@i_810+1)& (0+255),7,b
  4442  0013F2  EF04  F00A         	goto	u7831
  4443  0013F6  5123               	movf	(CDM@i_810+1)& (0+255),w,b
  4444  0013F8  E109               	bnz	u7830
  4445  0013FA  0E08               	movlw	8
  4446  0013FC  5D22               	subwf	CDM@i_810& (0+255),w,b
  4447  0013FE  A0D8               	btfss	status,0,c
  4448  001400  EF04  F00A         	goto	u7831
  4449  001404  EF06  F00A         	goto	u7830
  4450  001408                     u7831:
  4451  001408  EFE2  F009         	goto	l5044
  4452  00140C                     u7830:
  4453  00140C                     
  4454                           ; BSR set to: 1
  4455                           ;the3.c: 1203:       LcdCmd(0x80);
  4456  00140C  0E80               	movlw	128
  4457  00140E  EC0B  F015         	call	_LcdCmd
  4458                           
  4459                           ;the3.c: 1204:       LcdData(1);
  4460  001412  0E01               	movlw	1
  4461  001414  ECF5  F014         	call	_LcdData
  4462                           
  4463                           ;the3.c: 1205:       LcdCmd(0b00010000);
  4464  001418  0E10               	movlw	16
  4465  00141A  EC0B  F015         	call	_LcdCmd
  4466                           
  4467                           ;the3.c: 1206:     }
  4468  00141E  EF91  F00B         	goto	l593
  4469  001422                     l5052:
  4470  001422  0E02               	movlw	2
  4471  001424  1820               	xorwf	_customNum^0,w,c
  4472  001426  A4D8               	btfss	status,2,c
  4473  001428  EF18  F00A         	goto	u7841
  4474  00142C  EF1A  F00A         	goto	u7840
  4475  001430                     u7841:
  4476  001430  EF51  F00A         	goto	l5070
  4477  001434                     u7840:
  4478  001434                     
  4479                           ;the3.c: 1208:     {;the3.c: 1209:       LcdCmd(0x50);
  4480  001434  0E50               	movlw	80
  4481  001436  EC0B  F015         	call	_LcdCmd
  4482  00143A                     
  4483                           ;the3.c: 1210:       for (int i = 0; i < 8; i++)
  4484  00143A  0E00               	movlw	0
  4485  00143C  0101               	movlb	1	; () banked
  4486  00143E  6F25               	movwf	(CDM@i_811+1)& (0+255),b
  4487  001440  0E00               	movlw	0
  4488  001442  6F24               	movwf	CDM@i_811& (0+255),b
  4489  001444                     l5062:
  4490                           
  4491                           ; BSR set to: 1
  4492                           ;the3.c: 1211:       {;the3.c: 1212:         LcdData(charmap[customNum][i]);
  4493  001444  5020               	movf	_customNum^0,w,c
  4494  001446  0D08               	mullw	8
  4495  001448  0EB6               	movlw	low _charmap
  4496  00144A  6E3A               	movwf	??_CDM^0,c
  4497  00144C  0E00               	movlw	high _charmap
  4498  00144E  6E3B               	movwf	(??_CDM+1)^0,c
  4499  001450  50F3               	movf	243,w,c
  4500  001452  263A               	addwf	??_CDM^0,f,c
  4501  001454  50F4               	movf	244,w,c
  4502  001456  223B               	addwfc	(??_CDM+1)^0,f,c
  4503  001458  5124               	movf	CDM@i_811& (0+255),w,b
  4504  00145A  243A               	addwf	??_CDM^0,w,c
  4505  00145C  6ED9               	movwf	fsr2l,c
  4506  00145E  5125               	movf	(CDM@i_811+1)& (0+255),w,b
  4507  001460  203B               	addwfc	(??_CDM+1)^0,w,c
  4508  001462  6EDA               	movwf	fsr2h,c
  4509  001464  50DF               	movf	indf2,w,c
  4510  001466  ECF5  F014         	call	_LcdData
  4511  00146A                     
  4512                           ;the3.c: 1213:       }
  4513  00146A  0101               	movlb	1	; () banked
  4514  00146C  4B24               	infsnz	CDM@i_811& (0+255),f,b
  4515  00146E  2B25               	incf	(CDM@i_811+1)& (0+255),f,b
  4516  001470                     
  4517                           ; BSR set to: 1
  4518  001470  BF25               	btfsc	(CDM@i_811+1)& (0+255),7,b
  4519  001472  EF44  F00A         	goto	u7851
  4520  001476  5125               	movf	(CDM@i_811+1)& (0+255),w,b
  4521  001478  E109               	bnz	u7850
  4522  00147A  0E08               	movlw	8
  4523  00147C  5D24               	subwf	CDM@i_811& (0+255),w,b
  4524  00147E  A0D8               	btfss	status,0,c
  4525  001480  EF44  F00A         	goto	u7851
  4526  001484  EF46  F00A         	goto	u7850
  4527  001488                     u7851:
  4528  001488  EF22  F00A         	goto	l5062
  4529  00148C                     u7850:
  4530  00148C                     
  4531                           ; BSR set to: 1
  4532                           ;the3.c: 1214:       LcdCmd(0x80);
  4533  00148C  0E80               	movlw	128
  4534  00148E  EC0B  F015         	call	_LcdCmd
  4535                           
  4536                           ;the3.c: 1215:       LcdData(2);
  4537  001492  0E02               	movlw	2
  4538  001494  ECF5  F014         	call	_LcdData
  4539                           
  4540                           ;the3.c: 1216:       LcdCmd(0b00010000);
  4541  001498  0E10               	movlw	16
  4542  00149A  EC0B  F015         	call	_LcdCmd
  4543                           
  4544                           ;the3.c: 1217:     }
  4545  00149E  EF91  F00B         	goto	l593
  4546  0014A2                     l5070:
  4547  0014A2  0E03               	movlw	3
  4548  0014A4  1820               	xorwf	_customNum^0,w,c
  4549  0014A6  A4D8               	btfss	status,2,c
  4550  0014A8  EF58  F00A         	goto	u7861
  4551  0014AC  EF5A  F00A         	goto	u7860
  4552  0014B0                     u7861:
  4553  0014B0  EF91  F00A         	goto	l5088
  4554  0014B4                     u7860:
  4555  0014B4                     
  4556                           ;the3.c: 1219:     {;the3.c: 1220:       LcdCmd(0x58);
  4557  0014B4  0E58               	movlw	88
  4558  0014B6  EC0B  F015         	call	_LcdCmd
  4559  0014BA                     
  4560                           ;the3.c: 1221:       for (int i = 0; i < 8; i++)
  4561  0014BA  0E00               	movlw	0
  4562  0014BC  0101               	movlb	1	; () banked
  4563  0014BE  6F27               	movwf	(CDM@i_812+1)& (0+255),b
  4564  0014C0  0E00               	movlw	0
  4565  0014C2  6F26               	movwf	CDM@i_812& (0+255),b
  4566  0014C4                     l5080:
  4567                           
  4568                           ; BSR set to: 1
  4569                           ;the3.c: 1222:       {;the3.c: 1223:         LcdData(charmap[customNum][i]);
  4570  0014C4  5020               	movf	_customNum^0,w,c
  4571  0014C6  0D08               	mullw	8
  4572  0014C8  0EB6               	movlw	low _charmap
  4573  0014CA  6E3A               	movwf	??_CDM^0,c
  4574  0014CC  0E00               	movlw	high _charmap
  4575  0014CE  6E3B               	movwf	(??_CDM+1)^0,c
  4576  0014D0  50F3               	movf	243,w,c
  4577  0014D2  263A               	addwf	??_CDM^0,f,c
  4578  0014D4  50F4               	movf	244,w,c
  4579  0014D6  223B               	addwfc	(??_CDM+1)^0,f,c
  4580  0014D8  5126               	movf	CDM@i_812& (0+255),w,b
  4581  0014DA  243A               	addwf	??_CDM^0,w,c
  4582  0014DC  6ED9               	movwf	fsr2l,c
  4583  0014DE  5127               	movf	(CDM@i_812+1)& (0+255),w,b
  4584  0014E0  203B               	addwfc	(??_CDM+1)^0,w,c
  4585  0014E2  6EDA               	movwf	fsr2h,c
  4586  0014E4  50DF               	movf	indf2,w,c
  4587  0014E6  ECF5  F014         	call	_LcdData
  4588  0014EA                     
  4589                           ;the3.c: 1224:       }
  4590  0014EA  0101               	movlb	1	; () banked
  4591  0014EC  4B26               	infsnz	CDM@i_812& (0+255),f,b
  4592  0014EE  2B27               	incf	(CDM@i_812+1)& (0+255),f,b
  4593  0014F0                     
  4594                           ; BSR set to: 1
  4595  0014F0  BF27               	btfsc	(CDM@i_812+1)& (0+255),7,b
  4596  0014F2  EF84  F00A         	goto	u7871
  4597  0014F6  5127               	movf	(CDM@i_812+1)& (0+255),w,b
  4598  0014F8  E109               	bnz	u7870
  4599  0014FA  0E08               	movlw	8
  4600  0014FC  5D26               	subwf	CDM@i_812& (0+255),w,b
  4601  0014FE  A0D8               	btfss	status,0,c
  4602  001500  EF84  F00A         	goto	u7871
  4603  001504  EF86  F00A         	goto	u7870
  4604  001508                     u7871:
  4605  001508  EF62  F00A         	goto	l5080
  4606  00150C                     u7870:
  4607  00150C                     
  4608                           ; BSR set to: 1
  4609                           ;the3.c: 1225:       LcdCmd(0x80);
  4610  00150C  0E80               	movlw	128
  4611  00150E  EC0B  F015         	call	_LcdCmd
  4612                           
  4613                           ;the3.c: 1226:       LcdData(3);
  4614  001512  0E03               	movlw	3
  4615  001514  ECF5  F014         	call	_LcdData
  4616                           
  4617                           ;the3.c: 1227:       LcdCmd(0b00010000);
  4618  001518  0E10               	movlw	16
  4619  00151A  EC0B  F015         	call	_LcdCmd
  4620                           
  4621                           ;the3.c: 1228:     }
  4622  00151E  EF91  F00B         	goto	l593
  4623  001522                     l5088:
  4624  001522  0E04               	movlw	4
  4625  001524  1820               	xorwf	_customNum^0,w,c
  4626  001526  A4D8               	btfss	status,2,c
  4627  001528  EF98  F00A         	goto	u7881
  4628  00152C  EF9A  F00A         	goto	u7880
  4629  001530                     u7881:
  4630  001530  EFD1  F00A         	goto	l5106
  4631  001534                     u7880:
  4632  001534                     
  4633                           ;the3.c: 1230:     {;the3.c: 1231:       LcdCmd(0x60);
  4634  001534  0E60               	movlw	96
  4635  001536  EC0B  F015         	call	_LcdCmd
  4636  00153A                     
  4637                           ;the3.c: 1232:       for (int i = 0; i < 8; i++)
  4638  00153A  0E00               	movlw	0
  4639  00153C  0101               	movlb	1	; () banked
  4640  00153E  6F29               	movwf	(CDM@i_813+1)& (0+255),b
  4641  001540  0E00               	movlw	0
  4642  001542  6F28               	movwf	CDM@i_813& (0+255),b
  4643  001544                     l5098:
  4644                           
  4645                           ; BSR set to: 1
  4646                           ;the3.c: 1233:       {;the3.c: 1234:         LcdData(charmap[customNum][i]);
  4647  001544  5020               	movf	_customNum^0,w,c
  4648  001546  0D08               	mullw	8
  4649  001548  0EB6               	movlw	low _charmap
  4650  00154A  6E3A               	movwf	??_CDM^0,c
  4651  00154C  0E00               	movlw	high _charmap
  4652  00154E  6E3B               	movwf	(??_CDM+1)^0,c
  4653  001550  50F3               	movf	243,w,c
  4654  001552  263A               	addwf	??_CDM^0,f,c
  4655  001554  50F4               	movf	244,w,c
  4656  001556  223B               	addwfc	(??_CDM+1)^0,f,c
  4657  001558  5128               	movf	CDM@i_813& (0+255),w,b
  4658  00155A  243A               	addwf	??_CDM^0,w,c
  4659  00155C  6ED9               	movwf	fsr2l,c
  4660  00155E  5129               	movf	(CDM@i_813+1)& (0+255),w,b
  4661  001560  203B               	addwfc	(??_CDM+1)^0,w,c
  4662  001562  6EDA               	movwf	fsr2h,c
  4663  001564  50DF               	movf	indf2,w,c
  4664  001566  ECF5  F014         	call	_LcdData
  4665  00156A                     
  4666                           ;the3.c: 1235:       }
  4667  00156A  0101               	movlb	1	; () banked
  4668  00156C  4B28               	infsnz	CDM@i_813& (0+255),f,b
  4669  00156E  2B29               	incf	(CDM@i_813+1)& (0+255),f,b
  4670  001570                     
  4671                           ; BSR set to: 1
  4672  001570  BF29               	btfsc	(CDM@i_813+1)& (0+255),7,b
  4673  001572  EFC4  F00A         	goto	u7891
  4674  001576  5129               	movf	(CDM@i_813+1)& (0+255),w,b
  4675  001578  E109               	bnz	u7890
  4676  00157A  0E08               	movlw	8
  4677  00157C  5D28               	subwf	CDM@i_813& (0+255),w,b
  4678  00157E  A0D8               	btfss	status,0,c
  4679  001580  EFC4  F00A         	goto	u7891
  4680  001584  EFC6  F00A         	goto	u7890
  4681  001588                     u7891:
  4682  001588  EFA2  F00A         	goto	l5098
  4683  00158C                     u7890:
  4684  00158C                     
  4685                           ; BSR set to: 1
  4686                           ;the3.c: 1236:       LcdCmd(0x80);
  4687  00158C  0E80               	movlw	128
  4688  00158E  EC0B  F015         	call	_LcdCmd
  4689                           
  4690                           ;the3.c: 1237:       LcdData(4);
  4691  001592  0E04               	movlw	4
  4692  001594  ECF5  F014         	call	_LcdData
  4693                           
  4694                           ;the3.c: 1238:       LcdCmd(0b00010000);
  4695  001598  0E10               	movlw	16
  4696  00159A  EC0B  F015         	call	_LcdCmd
  4697                           
  4698                           ;the3.c: 1239:     }
  4699  00159E  EF91  F00B         	goto	l593
  4700  0015A2                     l5106:
  4701  0015A2  0E05               	movlw	5
  4702  0015A4  1820               	xorwf	_customNum^0,w,c
  4703  0015A6  A4D8               	btfss	status,2,c
  4704  0015A8  EFD8  F00A         	goto	u7901
  4705  0015AC  EFDA  F00A         	goto	u7900
  4706  0015B0                     u7901:
  4707  0015B0  EF11  F00B         	goto	l5124
  4708  0015B4                     u7900:
  4709  0015B4                     
  4710                           ;the3.c: 1241:     {;the3.c: 1242:       LcdCmd(0x68);
  4711  0015B4  0E68               	movlw	104
  4712  0015B6  EC0B  F015         	call	_LcdCmd
  4713  0015BA                     
  4714                           ;the3.c: 1243:       for (int i = 0; i < 8; i++)
  4715  0015BA  0E00               	movlw	0
  4716  0015BC  0101               	movlb	1	; () banked
  4717  0015BE  6F2B               	movwf	(CDM@i_814+1)& (0+255),b
  4718  0015C0  0E00               	movlw	0
  4719  0015C2  6F2A               	movwf	CDM@i_814& (0+255),b
  4720  0015C4                     l5116:
  4721                           
  4722                           ; BSR set to: 1
  4723                           ;the3.c: 1244:       {;the3.c: 1245:         LcdData(charmap[customNum][i]);
  4724  0015C4  5020               	movf	_customNum^0,w,c
  4725  0015C6  0D08               	mullw	8
  4726  0015C8  0EB6               	movlw	low _charmap
  4727  0015CA  6E3A               	movwf	??_CDM^0,c
  4728  0015CC  0E00               	movlw	high _charmap
  4729  0015CE  6E3B               	movwf	(??_CDM+1)^0,c
  4730  0015D0  50F3               	movf	243,w,c
  4731  0015D2  263A               	addwf	??_CDM^0,f,c
  4732  0015D4  50F4               	movf	244,w,c
  4733  0015D6  223B               	addwfc	(??_CDM+1)^0,f,c
  4734  0015D8  512A               	movf	CDM@i_814& (0+255),w,b
  4735  0015DA  243A               	addwf	??_CDM^0,w,c
  4736  0015DC  6ED9               	movwf	fsr2l,c
  4737  0015DE  512B               	movf	(CDM@i_814+1)& (0+255),w,b
  4738  0015E0  203B               	addwfc	(??_CDM+1)^0,w,c
  4739  0015E2  6EDA               	movwf	fsr2h,c
  4740  0015E4  50DF               	movf	indf2,w,c
  4741  0015E6  ECF5  F014         	call	_LcdData
  4742  0015EA                     
  4743                           ;the3.c: 1246:       }
  4744  0015EA  0101               	movlb	1	; () banked
  4745  0015EC  4B2A               	infsnz	CDM@i_814& (0+255),f,b
  4746  0015EE  2B2B               	incf	(CDM@i_814+1)& (0+255),f,b
  4747  0015F0                     
  4748                           ; BSR set to: 1
  4749  0015F0  BF2B               	btfsc	(CDM@i_814+1)& (0+255),7,b
  4750  0015F2  EF04  F00B         	goto	u7911
  4751  0015F6  512B               	movf	(CDM@i_814+1)& (0+255),w,b
  4752  0015F8  E109               	bnz	u7910
  4753  0015FA  0E08               	movlw	8
  4754  0015FC  5D2A               	subwf	CDM@i_814& (0+255),w,b
  4755  0015FE  A0D8               	btfss	status,0,c
  4756  001600  EF04  F00B         	goto	u7911
  4757  001604  EF06  F00B         	goto	u7910
  4758  001608                     u7911:
  4759  001608  EFE2  F00A         	goto	l5116
  4760  00160C                     u7910:
  4761  00160C                     
  4762                           ; BSR set to: 1
  4763                           ;the3.c: 1247:       LcdCmd(0x80);
  4764  00160C  0E80               	movlw	128
  4765  00160E  EC0B  F015         	call	_LcdCmd
  4766                           
  4767                           ;the3.c: 1248:       LcdData(5);
  4768  001612  0E05               	movlw	5
  4769  001614  ECF5  F014         	call	_LcdData
  4770                           
  4771                           ;the3.c: 1249:       LcdCmd(0b00010000);
  4772  001618  0E10               	movlw	16
  4773  00161A  EC0B  F015         	call	_LcdCmd
  4774                           
  4775                           ;the3.c: 1250:     }
  4776  00161E  EF91  F00B         	goto	l593
  4777  001622                     l5124:
  4778  001622  0E06               	movlw	6
  4779  001624  1820               	xorwf	_customNum^0,w,c
  4780  001626  A4D8               	btfss	status,2,c
  4781  001628  EF18  F00B         	goto	u7921
  4782  00162C  EF1A  F00B         	goto	u7920
  4783  001630                     u7921:
  4784  001630  EF51  F00B         	goto	l5142
  4785  001634                     u7920:
  4786  001634                     
  4787                           ;the3.c: 1252:     {;the3.c: 1253:       LcdCmd(0x70);
  4788  001634  0E70               	movlw	112
  4789  001636  EC0B  F015         	call	_LcdCmd
  4790  00163A                     
  4791                           ;the3.c: 1254:       for (int i = 0; i < 8; i++)
  4792  00163A  0E00               	movlw	0
  4793  00163C  0101               	movlb	1	; () banked
  4794  00163E  6F2D               	movwf	(CDM@i_815+1)& (0+255),b
  4795  001640  0E00               	movlw	0
  4796  001642  6F2C               	movwf	CDM@i_815& (0+255),b
  4797  001644                     l5134:
  4798                           
  4799                           ; BSR set to: 1
  4800                           ;the3.c: 1255:       {;the3.c: 1256:         LcdData(charmap[customNum][i]);
  4801  001644  5020               	movf	_customNum^0,w,c
  4802  001646  0D08               	mullw	8
  4803  001648  0EB6               	movlw	low _charmap
  4804  00164A  6E3A               	movwf	??_CDM^0,c
  4805  00164C  0E00               	movlw	high _charmap
  4806  00164E  6E3B               	movwf	(??_CDM+1)^0,c
  4807  001650  50F3               	movf	243,w,c
  4808  001652  263A               	addwf	??_CDM^0,f,c
  4809  001654  50F4               	movf	244,w,c
  4810  001656  223B               	addwfc	(??_CDM+1)^0,f,c
  4811  001658  512C               	movf	CDM@i_815& (0+255),w,b
  4812  00165A  243A               	addwf	??_CDM^0,w,c
  4813  00165C  6ED9               	movwf	fsr2l,c
  4814  00165E  512D               	movf	(CDM@i_815+1)& (0+255),w,b
  4815  001660  203B               	addwfc	(??_CDM+1)^0,w,c
  4816  001662  6EDA               	movwf	fsr2h,c
  4817  001664  50DF               	movf	indf2,w,c
  4818  001666  ECF5  F014         	call	_LcdData
  4819  00166A                     
  4820                           ;the3.c: 1257:       }
  4821  00166A  0101               	movlb	1	; () banked
  4822  00166C  4B2C               	infsnz	CDM@i_815& (0+255),f,b
  4823  00166E  2B2D               	incf	(CDM@i_815+1)& (0+255),f,b
  4824  001670                     
  4825                           ; BSR set to: 1
  4826  001670  BF2D               	btfsc	(CDM@i_815+1)& (0+255),7,b
  4827  001672  EF44  F00B         	goto	u7931
  4828  001676  512D               	movf	(CDM@i_815+1)& (0+255),w,b
  4829  001678  E109               	bnz	u7930
  4830  00167A  0E08               	movlw	8
  4831  00167C  5D2C               	subwf	CDM@i_815& (0+255),w,b
  4832  00167E  A0D8               	btfss	status,0,c
  4833  001680  EF44  F00B         	goto	u7931
  4834  001684  EF46  F00B         	goto	u7930
  4835  001688                     u7931:
  4836  001688  EF22  F00B         	goto	l5134
  4837  00168C                     u7930:
  4838  00168C                     
  4839                           ; BSR set to: 1
  4840                           ;the3.c: 1258:       LcdCmd(0x80);
  4841  00168C  0E80               	movlw	128
  4842  00168E  EC0B  F015         	call	_LcdCmd
  4843                           
  4844                           ;the3.c: 1259:       LcdData(6);
  4845  001692  0E06               	movlw	6
  4846  001694  ECF5  F014         	call	_LcdData
  4847                           
  4848                           ;the3.c: 1260:       LcdCmd(0b00010000);
  4849  001698  0E10               	movlw	16
  4850  00169A  EC0B  F015         	call	_LcdCmd
  4851                           
  4852                           ;the3.c: 1261:     }
  4853  00169E  EF91  F00B         	goto	l593
  4854  0016A2                     l5142:
  4855  0016A2  0E07               	movlw	7
  4856  0016A4  1820               	xorwf	_customNum^0,w,c
  4857  0016A6  A4D8               	btfss	status,2,c
  4858  0016A8  EF58  F00B         	goto	u7941
  4859  0016AC  EF5A  F00B         	goto	u7940
  4860  0016B0                     u7941:
  4861  0016B0  EF91  F00B         	goto	l614
  4862  0016B4                     u7940:
  4863  0016B4                     
  4864                           ;the3.c: 1263:     {;the3.c: 1264:       LcdCmd(0x78);
  4865  0016B4  0E78               	movlw	120
  4866  0016B6  EC0B  F015         	call	_LcdCmd
  4867  0016BA                     
  4868                           ;the3.c: 1265:       for (int i = 0; i < 8; i++)
  4869  0016BA  0E00               	movlw	0
  4870  0016BC  0101               	movlb	1	; () banked
  4871  0016BE  6F2F               	movwf	(CDM@i_816+1)& (0+255),b
  4872  0016C0  0E00               	movlw	0
  4873  0016C2  6F2E               	movwf	CDM@i_816& (0+255),b
  4874  0016C4                     l5152:
  4875                           
  4876                           ; BSR set to: 1
  4877                           ;the3.c: 1266:       {;the3.c: 1267:         LcdData(charmap[customNum][i]);
  4878  0016C4  5020               	movf	_customNum^0,w,c
  4879  0016C6  0D08               	mullw	8
  4880  0016C8  0EB6               	movlw	low _charmap
  4881  0016CA  6E3A               	movwf	??_CDM^0,c
  4882  0016CC  0E00               	movlw	high _charmap
  4883  0016CE  6E3B               	movwf	(??_CDM+1)^0,c
  4884  0016D0  50F3               	movf	243,w,c
  4885  0016D2  263A               	addwf	??_CDM^0,f,c
  4886  0016D4  50F4               	movf	244,w,c
  4887  0016D6  223B               	addwfc	(??_CDM+1)^0,f,c
  4888  0016D8  512E               	movf	CDM@i_816& (0+255),w,b
  4889  0016DA  243A               	addwf	??_CDM^0,w,c
  4890  0016DC  6ED9               	movwf	fsr2l,c
  4891  0016DE  512F               	movf	(CDM@i_816+1)& (0+255),w,b
  4892  0016E0  203B               	addwfc	(??_CDM+1)^0,w,c
  4893  0016E2  6EDA               	movwf	fsr2h,c
  4894  0016E4  50DF               	movf	indf2,w,c
  4895  0016E6  ECF5  F014         	call	_LcdData
  4896  0016EA                     
  4897                           ;the3.c: 1268:       }
  4898  0016EA  0101               	movlb	1	; () banked
  4899  0016EC  4B2E               	infsnz	CDM@i_816& (0+255),f,b
  4900  0016EE  2B2F               	incf	(CDM@i_816+1)& (0+255),f,b
  4901  0016F0                     
  4902                           ; BSR set to: 1
  4903  0016F0  BF2F               	btfsc	(CDM@i_816+1)& (0+255),7,b
  4904  0016F2  EF84  F00B         	goto	u7951
  4905  0016F6  512F               	movf	(CDM@i_816+1)& (0+255),w,b
  4906  0016F8  E109               	bnz	u7950
  4907  0016FA  0E08               	movlw	8
  4908  0016FC  5D2E               	subwf	CDM@i_816& (0+255),w,b
  4909  0016FE  A0D8               	btfss	status,0,c
  4910  001700  EF84  F00B         	goto	u7951
  4911  001704  EF86  F00B         	goto	u7950
  4912  001708                     u7951:
  4913  001708  EF62  F00B         	goto	l5152
  4914  00170C                     u7950:
  4915  00170C                     
  4916                           ; BSR set to: 1
  4917                           ;the3.c: 1269:       LcdCmd(0x80);
  4918  00170C  0E80               	movlw	128
  4919  00170E  EC0B  F015         	call	_LcdCmd
  4920                           
  4921                           ;the3.c: 1270:       LcdData(7);
  4922  001712  0E07               	movlw	7
  4923  001714  ECF5  F014         	call	_LcdData
  4924                           
  4925                           ;the3.c: 1271:       LcdCmd(0b00010000);
  4926  001718  0E10               	movlw	16
  4927  00171A  EC0B  F015         	call	_LcdCmd
  4928  00171E  EF91  F00B         	goto	l593
  4929  001722                     l614:
  4930  001722                     l593:
  4931  001722  0012               	return		;funcret
  4932  001724                     __end_of_CDM:
  4933                           	callstack 0
  4934                           
  4935 ;; *************** function _startRE0and3 *****************
  4936 ;; Defined at:
  4937 ;;		line 1281 in file "the3.c"
  4938 ;; Parameters:    Size  Location     Type
  4939 ;;		None
  4940 ;; Auto vars:     Size  Location     Type
  4941 ;;		None
  4942 ;; Return value:  Size  Location     Type
  4943 ;;                  1    wreg      void 
  4944 ;; Registers used:
  4945 ;;		wreg, status,2
  4946 ;; Tracked objects:
  4947 ;;		On entry : 0/0
  4948 ;;		On exit  : 0/0
  4949 ;;		Unchanged: 0/0
  4950 ;; Data sizes:     COMRAM   BANK0   BANK1   BANK2   BANK3   BANK4   BANK5   BANK6   BANK7   BANK8   BANK9  BANK10  BANK1
      +1  BANK12  BANK13  BANK14  BANK15
  4951 ;;      Params:         0       0       0       0       0       0       0       0       0       0       0       0       
      +0       0       0       0       0
  4952 ;;      Locals:         0       0       0       0       0       0       0       0       0       0       0       0       
      +0       0       0       0       0
  4953 ;;      Temps:          0       0       0       0       0       0       0       0       0       0       0       0       
      +0       0       0       0       0
  4954 ;;      Totals:         0       0       0       0       0       0       0       0       0       0       0       0       
      +0       0       0       0       0
  4955 ;;Total ram usage:        0 bytes
  4956 ;; Hardware stack levels used:    1
  4957 ;; Hardware stack levels required when called:    4
  4958 ;; This function calls:
  4959 ;;		Nothing
  4960 ;; This function is called by:
  4961 ;;		_CDM
  4962 ;;		_main
  4963 ;; This function uses a non-reentrant model
  4964 ;;
  4965                           
  4966                           	psect	text21
  4967  002B60                     __ptext21:
  4968                           	callstack 0
  4969  002B60                     _startRE0and3:
  4970                           	callstack 26
  4971  002B60                     
  4972                           ;the3.c: 1283:   TRISE = 0b00111111;
  4973  002B60  0E3F               	movlw	63
  4974  002B62  6E96               	movwf	150,c	;volatile
  4975  002B64  0012               	return		;funcret
  4976  002B66                     __end_of_startRE0and3:
  4977                           	callstack 0
  4978                           
  4979 ;; *************** function _re4_pressed *****************
  4980 ;; Defined at:
  4981 ;;		line 992 in file "the3.c"
  4982 ;; Parameters:    Size  Location     Type
  4983 ;;		None
  4984 ;; Auto vars:     Size  Location     Type
  4985 ;;		None
  4986 ;; Return value:  Size  Location     Type
  4987 ;;                  2   12[COMRAM] int 
  4988 ;; Registers used:
  4989 ;;		wreg, status,2
  4990 ;; Tracked objects:
  4991 ;;		On entry : 0/0
  4992 ;;		On exit  : 0/0
  4993 ;;		Unchanged: 0/0
  4994 ;; Data sizes:     COMRAM   BANK0   BANK1   BANK2   BANK3   BANK4   BANK5   BANK6   BANK7   BANK8   BANK9  BANK10  BANK1
      +1  BANK12  BANK13  BANK14  BANK15
  4995 ;;      Params:         2       0       0       0       0       0       0       0       0       0       0       0       
      +0       0       0       0       0
  4996 ;;      Locals:         0       0       0       0       0       0       0       0       0       0       0       0       
      +0       0       0       0       0
  4997 ;;      Temps:          0       0       0       0       0       0       0       0       0       0       0       0       
      +0       0       0       0       0
  4998 ;;      Totals:         2       0       0       0       0       0       0       0       0       0       0       0       
      +0       0       0       0       0
  4999 ;;Total ram usage:        2 bytes
  5000 ;; Hardware stack levels used:    1
  5001 ;; Hardware stack levels required when called:    4
  5002 ;; This function calls:
  5003 ;;		Nothing
  5004 ;; This function is called by:
  5005 ;;		_CDM
  5006 ;; This function uses a non-reentrant model
  5007 ;;
  5008                           
  5009                           	psect	text22
  5010  0029B2                     __ptext22:
  5011                           	callstack 0
  5012  0029B2                     _re4_pressed:
  5013                           	callstack 25
  5014  0029B2                     
  5015                           ;the3.c: 994:   if (inp_re4_btn_st && !PORTEbits.RE4)
  5016  0029B2  5022               	movf	_inp_re4_btn_st^0,w,c
  5017  0029B4  B4D8               	btfsc	status,2,c
  5018  0029B6  EFDF  F014         	goto	u6291
  5019  0029BA  EFE1  F014         	goto	u6290
  5020  0029BE                     u6291:
  5021  0029BE  EFF0  F014         	goto	l4554
  5022  0029C2                     u6290:
  5023  0029C2  B884               	btfsc	132,4,c	;volatile
  5024  0029C4  EFE6  F014         	goto	u6301
  5025  0029C8  EFE8  F014         	goto	u6300
  5026  0029CC                     u6301:
  5027  0029CC  EFF0  F014         	goto	l4554
  5028  0029D0                     u6300:
  5029  0029D0                     
  5030                           ;the3.c: 995:   {;the3.c: 996:     inp_re4_btn_st = 0;
  5031  0029D0  0E00               	movlw	0
  5032  0029D2  6E22               	movwf	_inp_re4_btn_st^0,c
  5033                           
  5034                           ;the3.c: 997:     return 1;
  5035  0029D4  0E00               	movlw	0
  5036  0029D6  6E34               	movwf	(?_re4_pressed+1)^0,c
  5037  0029D8  0E01               	movlw	1
  5038  0029DA  6E33               	movwf	?_re4_pressed^0,c
  5039  0029DC  EFF4  F014         	goto	l522
  5040  0029E0                     l4554:
  5041                           
  5042                           ;the3.c: 1000:   {;the3.c: 1001:     return 0;
  5043  0029E0  0E00               	movlw	0
  5044  0029E2  6E34               	movwf	(?_re4_pressed+1)^0,c
  5045  0029E4  0E00               	movlw	0
  5046  0029E6  6E33               	movwf	?_re4_pressed^0,c
  5047  0029E8                     l522:
  5048  0029E8  0012               	return		;funcret
  5049  0029EA                     __end_of_re4_pressed:
  5050                           	callstack 0
  5051                           
  5052 ;; *************** function _input_task *****************
  5053 ;; Defined at:
  5054 ;;		line 475 in file "the3.c"
  5055 ;; Parameters:    Size  Location     Type
  5056 ;;		None
  5057 ;; Auto vars:     Size  Location     Type
  5058 ;;		None
  5059 ;; Return value:  Size  Location     Type
  5060 ;;                  1    wreg      void 
  5061 ;; Registers used:
  5062 ;;		wreg, status,2
  5063 ;; Tracked objects:
  5064 ;;		On entry : 0/0
  5065 ;;		On exit  : 0/0
  5066 ;;		Unchanged: 0/0
  5067 ;; Data sizes:     COMRAM   BANK0   BANK1   BANK2   BANK3   BANK4   BANK5   BANK6   BANK7   BANK8   BANK9  BANK10  BANK1
      +1  BANK12  BANK13  BANK14  BANK15
  5068 ;;      Params:         0       0       0       0       0       0       0       0       0       0       0       0       
      +0       0       0       0       0
  5069 ;;      Locals:         0       0       0       0       0       0       0       0       0       0       0       0       
      +0       0       0       0       0
  5070 ;;      Temps:          0       0       0       0       0       0       0       0       0       0       0       0       
      +0       0       0       0       0
  5071 ;;      Totals:         0       0       0       0       0       0       0       0       0       0       0       0       
      +0       0       0       0       0
  5072 ;;Total ram usage:        0 bytes
  5073 ;; Hardware stack levels used:    1
  5074 ;; Hardware stack levels required when called:    4
  5075 ;; This function calls:
  5076 ;;		Nothing
  5077 ;; This function is called by:
  5078 ;;		_CDM
  5079 ;;		_main
  5080 ;; This function uses a non-reentrant model
  5081 ;;
  5082                           
  5083                           	psect	text23
  5084  00269A                     __ptext23:
  5085                           	callstack 0
  5086  00269A                     _input_task:
  5087                           	callstack 26
  5088  00269A                     
  5089                           ;the3.c: 477:   if (PORTEbits.RE1)
  5090  00269A  A284               	btfss	132,1,c	;volatile
  5091  00269C  EF52  F013         	goto	u6041
  5092  0026A0  EF54  F013         	goto	u6040
  5093  0026A4                     u6041:
  5094  0026A4  EF58  F013         	goto	l344
  5095  0026A8                     u6040:
  5096  0026A8                     
  5097                           ;the3.c: 478:   {;the3.c: 479:     inp_re1_btn_st = 1;
  5098  0026A8  0E01               	movlw	1
  5099  0026AA  6E25               	movwf	_inp_re1_btn_st^0,c
  5100                           
  5101                           ;the3.c: 480:   }
  5102  0026AC  EF8F  F013         	goto	l355
  5103  0026B0                     l344:
  5104  0026B0  A484               	btfss	132,2,c	;volatile
  5105  0026B2  EF5D  F013         	goto	u6051
  5106  0026B6  EF5F  F013         	goto	u6050
  5107  0026BA                     u6051:
  5108  0026BA  EF63  F013         	goto	l346
  5109  0026BE                     u6050:
  5110  0026BE                     
  5111                           ;the3.c: 482:   {;the3.c: 483:     inp_re2_btn_st = 1;
  5112  0026BE  0E01               	movlw	1
  5113  0026C0  6E24               	movwf	_inp_re2_btn_st^0,c
  5114                           
  5115                           ;the3.c: 484:   }
  5116  0026C2  EF8F  F013         	goto	l355
  5117  0026C6                     l346:
  5118  0026C6  A084               	btfss	132,0,c	;volatile
  5119  0026C8  EF68  F013         	goto	u6061
  5120  0026CC  EF6A  F013         	goto	u6060
  5121  0026D0                     u6061:
  5122  0026D0  EF6E  F013         	goto	l348
  5123  0026D4                     u6060:
  5124  0026D4                     
  5125                           ;the3.c: 486:   {;the3.c: 487:     inp_re0_btn_st = 1;
  5126  0026D4  0E01               	movlw	1
  5127  0026D6  6E26               	movwf	_inp_re0_btn_st^0,c
  5128                           
  5129                           ;the3.c: 488:   }
  5130  0026D8  EF8F  F013         	goto	l355
  5131  0026DC                     l348:
  5132  0026DC  A684               	btfss	132,3,c	;volatile
  5133  0026DE  EF73  F013         	goto	u6071
  5134  0026E2  EF75  F013         	goto	u6070
  5135  0026E6                     u6071:
  5136  0026E6  EF79  F013         	goto	l350
  5137  0026EA                     u6070:
  5138  0026EA                     
  5139                           ;the3.c: 490:   {;the3.c: 491:     inp_re3_btn_st = 1;
  5140  0026EA  0E01               	movlw	1
  5141  0026EC  6E23               	movwf	_inp_re3_btn_st^0,c
  5142                           
  5143                           ;the3.c: 492:   }
  5144  0026EE  EF8F  F013         	goto	l355
  5145  0026F2                     l350:
  5146  0026F2  A884               	btfss	132,4,c	;volatile
  5147  0026F4  EF7E  F013         	goto	u6081
  5148  0026F8  EF80  F013         	goto	u6080
  5149  0026FC                     u6081:
  5150  0026FC  EF84  F013         	goto	l352
  5151  002700                     u6080:
  5152  002700                     
  5153                           ;the3.c: 494:   {;the3.c: 495:     inp_re4_btn_st = 1;
  5154  002700  0E01               	movlw	1
  5155  002702  6E22               	movwf	_inp_re4_btn_st^0,c
  5156                           
  5157                           ;the3.c: 496:   }
  5158  002704  EF8F  F013         	goto	l355
  5159  002708                     l352:
  5160  002708  AA84               	btfss	132,5,c	;volatile
  5161  00270A  EF89  F013         	goto	u6091
  5162  00270E  EF8B  F013         	goto	u6090
  5163  002712                     u6091:
  5164  002712  EF8F  F013         	goto	l349
  5165  002716                     u6090:
  5166  002716                     
  5167                           ;the3.c: 498:   {;the3.c: 499:     inp_re5_btn_st = 1;
  5168  002716  0E01               	movlw	1
  5169  002718  6E21               	movwf	_inp_re5_btn_st^0,c
  5170  00271A  EF8F  F013         	goto	l355
  5171  00271E                     l349:
  5172  00271E                     l355:
  5173  00271E  0012               	return		;funcret
  5174  002720                     __end_of_input_task:
  5175                           	callstack 0
  5176                           
  5177 ;; *************** function _LcdData *****************
  5178 ;; Defined at:
  5179 ;;		line 51 in file "lcd.c"
  5180 ;; Parameters:    Size  Location     Type
  5181 ;;  data            1    wreg     unsigned char 
  5182 ;; Auto vars:     Size  Location     Type
  5183 ;;  data            1   12[COMRAM] unsigned char 
  5184 ;; Return value:  Size  Location     Type
  5185 ;;                  1    wreg      void 
  5186 ;; Registers used:
  5187 ;;		wreg, status,2, status,0, cstack
  5188 ;; Tracked objects:
  5189 ;;		On entry : 0/0
  5190 ;;		On exit  : 0/0
  5191 ;;		Unchanged: 0/0
  5192 ;; Data sizes:     COMRAM   BANK0   BANK1   BANK2   BANK3   BANK4   BANK5   BANK6   BANK7   BANK8   BANK9  BANK10  BANK1
      +1  BANK12  BANK13  BANK14  BANK15
  5193 ;;      Params:         0       0       0       0       0       0       0       0       0       0       0       0       
      +0       0       0       0       0
  5194 ;;      Locals:         1       0       0       0       0       0       0       0       0       0       0       0       
      +0       0       0       0       0
  5195 ;;      Temps:          0       0       0       0       0       0       0       0       0       0       0       0       
      +0       0       0       0       0
  5196 ;;      Totals:         1       0       0       0       0       0       0       0       0       0       0       0       
      +0       0       0       0       0
  5197 ;;Total ram usage:        1 bytes
  5198 ;; Hardware stack levels used:    1
  5199 ;; Hardware stack levels required when called:    5
  5200 ;; This function calls:
  5201 ;;		_Pulse
  5202 ;; This function is called by:
  5203 ;;		_LCDdisplay
  5204 ;;		_modeChange
  5205 ;;		_TSM
  5206 ;;		_CDM
  5207 ;;		_CreateChar
  5208 ;;		_LcdStr
  5209 ;; This function uses a non-reentrant model
  5210 ;;
  5211                           
  5212                           	psect	text24
  5213  0029EA                     __ptext24:
  5214                           	callstack 0
  5215  0029EA                     _LcdData:
  5216                           	callstack 24
  5217                           
  5218                           ;incstack = 0
  5219                           ;LcdData@data stored from wreg
  5220  0029EA  6E33               	movwf	LcdData@data^0,c
  5221  0029EC                     
  5222                           ;lcd.c: 54:     LATB2 = 1;
  5223  0029EC  848A               	bsf	3978,2,c	;volatile
  5224  0029EE                     
  5225                           ;lcd.c: 57:     PORTD = PORTD & 0x0F;
  5226  0029EE  5083               	movf	131,w,c	;volatile
  5227  0029F0  0B0F               	andlw	15
  5228  0029F2  6E83               	movwf	131,c	;volatile
  5229                           
  5230                           ;lcd.c: 58:     PORTD = PORTD | (data & 0xF0);
  5231  0029F4  5033               	movf	LcdData@data^0,w,c
  5232  0029F6  0BF0               	andlw	240
  5233  0029F8  1083               	iorwf	131,w,c	;volatile
  5234  0029FA  6E83               	movwf	131,c	;volatile
  5235  0029FC                     
  5236                           ;lcd.c: 60:     Pulse();
  5237  0029FC  EC8C  F015         	call	_Pulse	;wreg free
  5238  002A00                     
  5239                           ;lcd.c: 63:     PORTD = PORTD & 0x0F;
  5240  002A00  5083               	movf	131,w,c	;volatile
  5241  002A02  0B0F               	andlw	15
  5242  002A04  6E83               	movwf	131,c	;volatile
  5243  002A06                     
  5244                           ;lcd.c: 64:     PORTD = PORTD | ((data << 4)& 0xF0);
  5245  002A06  3833               	swapf	LcdData@data^0,w,c
  5246  002A08  0BF0               	andlw	240
  5247  002A0A  0BF0               	andlw	240
  5248  002A0C  1083               	iorwf	131,w,c	;volatile
  5249  002A0E  6E83               	movwf	131,c	;volatile
  5250  002A10                     
  5251                           ;lcd.c: 66:     Pulse();
  5252  002A10  EC8C  F015         	call	_Pulse	;wreg free
  5253  002A14  0012               	return		;funcret
  5254  002A16                     __end_of_LcdData:
  5255                           	callstack 0
  5256                           
  5257 ;; *************** function _LcdCmd *****************
  5258 ;; Defined at:
  5259 ;;		line 34 in file "lcd.c"
  5260 ;; Parameters:    Size  Location     Type
  5261 ;;  cmd             1    wreg     unsigned char 
  5262 ;; Auto vars:     Size  Location     Type
  5263 ;;  cmd             1   12[COMRAM] unsigned char 
  5264 ;; Return value:  Size  Location     Type
  5265 ;;                  1    wreg      void 
  5266 ;; Registers used:
  5267 ;;		wreg, status,2, status,0, cstack
  5268 ;; Tracked objects:
  5269 ;;		On entry : 0/0
  5270 ;;		On exit  : 0/0
  5271 ;;		Unchanged: 0/0
  5272 ;; Data sizes:     COMRAM   BANK0   BANK1   BANK2   BANK3   BANK4   BANK5   BANK6   BANK7   BANK8   BANK9  BANK10  BANK1
      +1  BANK12  BANK13  BANK14  BANK15
  5273 ;;      Params:         0       0       0       0       0       0       0       0       0       0       0       0       
      +0       0       0       0       0
  5274 ;;      Locals:         1       0       0       0       0       0       0       0       0       0       0       0       
      +0       0       0       0       0
  5275 ;;      Temps:          0       0       0       0       0       0       0       0       0       0       0       0       
      +0       0       0       0       0
  5276 ;;      Totals:         1       0       0       0       0       0       0       0       0       0       0       0       
      +0       0       0       0       0
  5277 ;;Total ram usage:        1 bytes
  5278 ;; Hardware stack levels used:    1
  5279 ;; Hardware stack levels required when called:    5
  5280 ;; This function calls:
  5281 ;;		_Pulse
  5282 ;; This function is called by:
  5283 ;;		_InitLCD
  5284 ;;		_LcdClear
  5285 ;;		_init
  5286 ;;		_LCDdisplay
  5287 ;;		_modeChange
  5288 ;;		_TSM
  5289 ;;		_init_CDM_mode
  5290 ;;		_CDM
  5291 ;;		_CreateChar
  5292 ;; This function uses a non-reentrant model
  5293 ;;
  5294                           
  5295                           	psect	text25
  5296  002A16                     __ptext25:
  5297                           	callstack 0
  5298  002A16                     _LcdCmd:
  5299                           	callstack 24
  5300                           
  5301                           ;incstack = 0
  5302                           ;LcdCmd@cmd stored from wreg
  5303  002A16  6E33               	movwf	LcdCmd@cmd^0,c
  5304  002A18                     
  5305                           ;lcd.c: 37:     LATB2 = 0;
  5306  002A18  948A               	bcf	3978,2,c	;volatile
  5307  002A1A                     
  5308                           ;lcd.c: 40:     PORTD = PORTD & 0x0F;
  5309  002A1A  5083               	movf	131,w,c	;volatile
  5310  002A1C  0B0F               	andlw	15
  5311  002A1E  6E83               	movwf	131,c	;volatile
  5312                           
  5313                           ;lcd.c: 41:     PORTD = PORTD |(cmd & 0xF0);
  5314  002A20  5033               	movf	LcdCmd@cmd^0,w,c
  5315  002A22  0BF0               	andlw	240
  5316  002A24  1083               	iorwf	131,w,c	;volatile
  5317  002A26  6E83               	movwf	131,c	;volatile
  5318  002A28                     
  5319                           ;lcd.c: 43:     Pulse();
  5320  002A28  EC8C  F015         	call	_Pulse	;wreg free
  5321  002A2C                     
  5322                           ;lcd.c: 46:     PORTD = PORTD & 0x0F;
  5323  002A2C  5083               	movf	131,w,c	;volatile
  5324  002A2E  0B0F               	andlw	15
  5325  002A30  6E83               	movwf	131,c	;volatile
  5326  002A32                     
  5327                           ;lcd.c: 47:     PORTD = PORTD | ((cmd << 4) & 0xF0);
  5328  002A32  3833               	swapf	LcdCmd@cmd^0,w,c
  5329  002A34  0BF0               	andlw	240
  5330  002A36  0BF0               	andlw	240
  5331  002A38  1083               	iorwf	131,w,c	;volatile
  5332  002A3A  6E83               	movwf	131,c	;volatile
  5333  002A3C                     
  5334                           ;lcd.c: 49:     Pulse();
  5335  002A3C  EC8C  F015         	call	_Pulse	;wreg free
  5336  002A40  0012               	return		;funcret
  5337  002A42                     __end_of_LcdCmd:
  5338                           	callstack 0
  5339                           
  5340 ;; *************** function _Pulse *****************
  5341 ;; Defined at:
  5342 ;;		line 5 in file "lcd.c"
  5343 ;; Parameters:    Size  Location     Type
  5344 ;;		None
  5345 ;; Auto vars:     Size  Location     Type
  5346 ;;		None
  5347 ;; Return value:  Size  Location     Type
  5348 ;;                  1    wreg      void 
  5349 ;; Registers used:
  5350 ;;		wreg
  5351 ;; Tracked objects:
  5352 ;;		On entry : 0/0
  5353 ;;		On exit  : 0/0
  5354 ;;		Unchanged: 0/0
  5355 ;; Data sizes:     COMRAM   BANK0   BANK1   BANK2   BANK3   BANK4   BANK5   BANK6   BANK7   BANK8   BANK9  BANK10  BANK1
      +1  BANK12  BANK13  BANK14  BANK15
  5356 ;;      Params:         0       0       0       0       0       0       0       0       0       0       0       0       
      +0       0       0       0       0
  5357 ;;      Locals:         0       0       0       0       0       0       0       0       0       0       0       0       
      +0       0       0       0       0
  5358 ;;      Temps:          0       0       0       0       0       0       0       0       0       0       0       0       
      +0       0       0       0       0
  5359 ;;      Totals:         0       0       0       0       0       0       0       0       0       0       0       0       
      +0       0       0       0       0
  5360 ;;Total ram usage:        0 bytes
  5361 ;; Hardware stack levels used:    1
  5362 ;; Hardware stack levels required when called:    4
  5363 ;; This function calls:
  5364 ;;		Nothing
  5365 ;; This function is called by:
  5366 ;;		_InitLCD
  5367 ;;		_LcdCmd
  5368 ;;		_LcdData
  5369 ;; This function uses a non-reentrant model
  5370 ;;
  5371                           
  5372                           	psect	text26
  5373  002B18                     __ptext26:
  5374                           	callstack 0
  5375  002B18                     _Pulse:
  5376                           	callstack 24
  5377  002B18                     
  5378                           ;lcd.c: 6:     LATB5 = 1;
  5379  002B18  8A8A               	bsf	3978,5,c	;volatile
  5380  002B1A                     
  5381                           ;lcd.c: 7:     _delay((unsigned long)((30)*(40000000/4000000.0)));
  5382  002B1A  0E64               	movlw	100
  5383  002B1C                     u8097:
  5384  002B1C  2EE8               	decfsz	wreg,f,c
  5385  002B1E  D7FE               	bra	u8097
  5386  002B20                     
  5387                           ;lcd.c: 8:     LATB5 = 0;
  5388  002B20  9A8A               	bcf	3978,5,c	;volatile
  5389                           
  5390                           ;lcd.c: 9:     _delay((unsigned long)((30)*(40000000/4000000.0)));
  5391  002B22  0E64               	movlw	100
  5392  002B24                     u8107:
  5393  002B24  2EE8               	decfsz	wreg,f,c
  5394  002B26  D7FE               	bra	u8107
  5395  002B28  0012               	return		;funcret
  5396  002B2A                     __end_of_Pulse:
  5397                           	callstack 0
  5398                           
  5399 ;; *************** function _CMDledTask *****************
  5400 ;; Defined at:
  5401 ;;		line 1005 in file "the3.c"
  5402 ;; Parameters:    Size  Location     Type
  5403 ;;		None
  5404 ;; Auto vars:     Size  Location     Type
  5405 ;;  j               2   17[COMRAM] int 
  5406 ;;  i               2   14[COMRAM] int 
  5407 ;;  bitStatus       1   16[COMRAM] unsigned char 
  5408 ;; Return value:  Size  Location     Type
  5409 ;;                  1    wreg      void 
  5410 ;; Registers used:
  5411 ;;		wreg, fsr2l, fsr2h, status,2, status,0, prodl, prodh
  5412 ;; Tracked objects:
  5413 ;;		On entry : 0/0
  5414 ;;		On exit  : 0/0
  5415 ;;		Unchanged: 0/0
  5416 ;; Data sizes:     COMRAM   BANK0   BANK1   BANK2   BANK3   BANK4   BANK5   BANK6   BANK7   BANK8   BANK9  BANK10  BANK1
      +1  BANK12  BANK13  BANK14  BANK15
  5417 ;;      Params:         0       0       0       0       0       0       0       0       0       0       0       0       
      +0       0       0       0       0
  5418 ;;      Locals:         5       0       0       0       0       0       0       0       0       0       0       0       
      +0       0       0       0       0
  5419 ;;      Temps:          2       0       0       0       0       0       0       0       0       0       0       0       
      +0       0       0       0       0
  5420 ;;      Totals:         7       0       0       0       0       0       0       0       0       0       0       0       
      +0       0       0       0       0
  5421 ;;Total ram usage:        7 bytes
  5422 ;; Hardware stack levels used:    1
  5423 ;; Hardware stack levels required when called:    4
  5424 ;; This function calls:
  5425 ;;		Nothing
  5426 ;; This function is called by:
  5427 ;;		_CDM
  5428 ;; This function uses a non-reentrant model
  5429 ;;
  5430                           
  5431                           	psect	text27
  5432  000012                     __ptext27:
  5433                           	callstack 0
  5434  000012                     _CMDledTask:
  5435                           	callstack 25
  5436  000012                     
  5437                           ;the3.c: 1010:   for (int i = 0; i < 8; i++)
  5438  000012  0E00               	movlw	0
  5439  000014  6E36               	movwf	(CMDledTask@i+1)^0,c
  5440  000016  0E00               	movlw	0
  5441  000018  6E35               	movwf	CMDledTask@i^0,c
  5442  00001A                     l4564:
  5443                           
  5444                           ;the3.c: 1011:   {;the3.c: 1012:     for (int j = 4; j > 0; j--)
  5445  00001A  0E00               	movlw	0
  5446  00001C  6E39               	movwf	(CMDledTask@j+1)^0,c
  5447  00001E  0E04               	movlw	4
  5448  000020  6E38               	movwf	CMDledTask@j^0,c
  5449  000022                     l4570:
  5450                           
  5451                           ;the3.c: 1013:     {;the3.c: 1014:       if (j == 4 && i == 0)
  5452  000022  0E04               	movlw	4
  5453  000024  1838               	xorwf	CMDledTask@j^0,w,c
  5454  000026  1039               	iorwf	(CMDledTask@j+1)^0,w,c
  5455  000028  A4D8               	btfss	status,2,c
  5456  00002A  EF19  F000         	goto	u6311
  5457  00002E  EF1B  F000         	goto	u6310
  5458  000032                     u6311:
  5459  000032  EF42  F000         	goto	l4578
  5460  000036                     u6310:
  5461  000036  5035               	movf	CMDledTask@i^0,w,c
  5462  000038  1036               	iorwf	(CMDledTask@i+1)^0,w,c
  5463  00003A  A4D8               	btfss	status,2,c
  5464  00003C  EF22  F000         	goto	u6321
  5465  000040  EF24  F000         	goto	u6320
  5466  000044                     u6321:
  5467  000044  EF42  F000         	goto	l4578
  5468  000048                     u6320:
  5469  000048                     
  5470                           ;the3.c: 1015:       {;the3.c: 1016:         bitStatus = ((charmap[customNum][0] >> j) &
      +                           1);
  5471  000048  C038  F033         	movff	CMDledTask@j,??_CMDledTask
  5472  00004C  5020               	movf	_customNum^0,w,c
  5473  00004E  0D08               	mullw	8
  5474  000050  0EB6               	movlw	low _charmap
  5475  000052  24F3               	addwf	243,w,c
  5476  000054  6ED9               	movwf	fsr2l,c
  5477  000056  0E00               	movlw	high _charmap
  5478  000058  20F4               	addwfc	prodh,w,c
  5479  00005A  6EDA               	movwf	fsr2h,c
  5480  00005C  50DF               	movf	indf2,w,c
  5481  00005E  6E34               	movwf	(??_CMDledTask+1)^0,c
  5482  000060  2A33               	incf	??_CMDledTask^0,f,c
  5483  000062  EF35  F000         	goto	u6334
  5484  000066                     u6335:
  5485  000066  90D8               	bcf	status,0,c
  5486  000068  3234               	rrcf	(??_CMDledTask+1)^0,f,c
  5487  00006A                     u6334:
  5488  00006A  2E33               	decfsz	??_CMDledTask^0,f,c
  5489  00006C  EF33  F000         	goto	u6335
  5490  000070  5034               	movf	(??_CMDledTask+1)^0,w,c
  5491  000072  0B01               	andlw	1
  5492  000074  6E37               	movwf	CMDledTask@bitStatus^0,c
  5493  000076                     
  5494                           ;the3.c: 1017:         PORTAbits.RA0 = bitStatus;
  5495  000076  B037               	btfsc	CMDledTask@bitStatus^0,0,c
  5496  000078  D002               	bra	u6345
  5497  00007A  9080               	bcf	128,0,c	;volatile
  5498  00007C  D001               	bra	u6346
  5499  00007E                     u6345:
  5500  00007E  8080               	bsf	128,0,c	;volatile
  5501  000080                     u6346:
  5502                           
  5503                           ;the3.c: 1018:       }
  5504  000080  EFDD  F005         	goto	l4810
  5505  000084                     l4578:
  5506  000084  0E03               	movlw	3
  5507  000086  1838               	xorwf	CMDledTask@j^0,w,c
  5508  000088  1039               	iorwf	(CMDledTask@j+1)^0,w,c
  5509  00008A  A4D8               	btfss	status,2,c
  5510  00008C  EF4A  F000         	goto	u6351
  5511  000090  EF4C  F000         	goto	u6350
  5512  000094                     u6351:
  5513  000094  EF73  F000         	goto	l4586
  5514  000098                     u6350:
  5515  000098  5035               	movf	CMDledTask@i^0,w,c
  5516  00009A  1036               	iorwf	(CMDledTask@i+1)^0,w,c
  5517  00009C  A4D8               	btfss	status,2,c
  5518  00009E  EF53  F000         	goto	u6361
  5519  0000A2  EF55  F000         	goto	u6360
  5520  0000A6                     u6361:
  5521  0000A6  EF73  F000         	goto	l4586
  5522  0000AA                     u6360:
  5523  0000AA                     
  5524                           ;the3.c: 1020:       {;the3.c: 1021:         bitStatus = ((charmap[customNum][0] >> j) &
      +                           1);
  5525  0000AA  C038  F033         	movff	CMDledTask@j,??_CMDledTask
  5526  0000AE  5020               	movf	_customNum^0,w,c
  5527  0000B0  0D08               	mullw	8
  5528  0000B2  0EB6               	movlw	low _charmap
  5529  0000B4  24F3               	addwf	243,w,c
  5530  0000B6  6ED9               	movwf	fsr2l,c
  5531  0000B8  0E00               	movlw	high _charmap
  5532  0000BA  20F4               	addwfc	prodh,w,c
  5533  0000BC  6EDA               	movwf	fsr2h,c
  5534  0000BE  50DF               	movf	indf2,w,c
  5535  0000C0  6E34               	movwf	(??_CMDledTask+1)^0,c
  5536  0000C2  2A33               	incf	??_CMDledTask^0,f,c
  5537  0000C4  EF66  F000         	goto	u6374
  5538  0000C8                     u6375:
  5539  0000C8  90D8               	bcf	status,0,c
  5540  0000CA  3234               	rrcf	(??_CMDledTask+1)^0,f,c
  5541  0000CC                     u6374:
  5542  0000CC  2E33               	decfsz	??_CMDledTask^0,f,c
  5543  0000CE  EF64  F000         	goto	u6375
  5544  0000D2  5034               	movf	(??_CMDledTask+1)^0,w,c
  5545  0000D4  0B01               	andlw	1
  5546  0000D6  6E37               	movwf	CMDledTask@bitStatus^0,c
  5547  0000D8                     
  5548                           ;the3.c: 1022:         PORTBbits.RB0 = bitStatus;
  5549  0000D8  B037               	btfsc	CMDledTask@bitStatus^0,0,c
  5550  0000DA  D002               	bra	u6385
  5551  0000DC  9081               	bcf	129,0,c	;volatile
  5552  0000DE  D001               	bra	u6386
  5553  0000E0                     u6385:
  5554  0000E0  8081               	bsf	129,0,c	;volatile
  5555  0000E2                     u6386:
  5556                           
  5557                           ;the3.c: 1023:       }
  5558  0000E2  EFDD  F005         	goto	l4810
  5559  0000E6                     l4586:
  5560  0000E6  0E02               	movlw	2
  5561  0000E8  1838               	xorwf	CMDledTask@j^0,w,c
  5562  0000EA  1039               	iorwf	(CMDledTask@j+1)^0,w,c
  5563  0000EC  A4D8               	btfss	status,2,c
  5564  0000EE  EF7B  F000         	goto	u6391
  5565  0000F2  EF7D  F000         	goto	u6390
  5566  0000F6                     u6391:
  5567  0000F6  EFA4  F000         	goto	l4594
  5568  0000FA                     u6390:
  5569  0000FA  5035               	movf	CMDledTask@i^0,w,c
  5570  0000FC  1036               	iorwf	(CMDledTask@i+1)^0,w,c
  5571  0000FE  A4D8               	btfss	status,2,c
  5572  000100  EF84  F000         	goto	u6401
  5573  000104  EF86  F000         	goto	u6400
  5574  000108                     u6401:
  5575  000108  EFA4  F000         	goto	l4594
  5576  00010C                     u6400:
  5577  00010C                     
  5578                           ;the3.c: 1025:       {;the3.c: 1026:         bitStatus = ((charmap[customNum][0] >> j) &
      +                           1);
  5579  00010C  C038  F033         	movff	CMDledTask@j,??_CMDledTask
  5580  000110  5020               	movf	_customNum^0,w,c
  5581  000112  0D08               	mullw	8
  5582  000114  0EB6               	movlw	low _charmap
  5583  000116  24F3               	addwf	243,w,c
  5584  000118  6ED9               	movwf	fsr2l,c
  5585  00011A  0E00               	movlw	high _charmap
  5586  00011C  20F4               	addwfc	prodh,w,c
  5587  00011E  6EDA               	movwf	fsr2h,c
  5588  000120  50DF               	movf	indf2,w,c
  5589  000122  6E34               	movwf	(??_CMDledTask+1)^0,c
  5590  000124  2A33               	incf	??_CMDledTask^0,f,c
  5591  000126  EF97  F000         	goto	u6414
  5592  00012A                     u6415:
  5593  00012A  90D8               	bcf	status,0,c
  5594  00012C  3234               	rrcf	(??_CMDledTask+1)^0,f,c
  5595  00012E                     u6414:
  5596  00012E  2E33               	decfsz	??_CMDledTask^0,f,c
  5597  000130  EF95  F000         	goto	u6415
  5598  000134  5034               	movf	(??_CMDledTask+1)^0,w,c
  5599  000136  0B01               	andlw	1
  5600  000138  6E37               	movwf	CMDledTask@bitStatus^0,c
  5601  00013A                     
  5602                           ;the3.c: 1027:         PORTCbits.RC0 = bitStatus;
  5603  00013A  B037               	btfsc	CMDledTask@bitStatus^0,0,c
  5604  00013C  D002               	bra	u6425
  5605  00013E  9082               	bcf	130,0,c	;volatile
  5606  000140  D001               	bra	u6426
  5607  000142                     u6425:
  5608  000142  8082               	bsf	130,0,c	;volatile
  5609  000144                     u6426:
  5610                           
  5611                           ;the3.c: 1028:       }
  5612  000144  EFDD  F005         	goto	l4810
  5613  000148                     l4594:
  5614  000148  0438               	decf	CMDledTask@j^0,w,c
  5615  00014A  1039               	iorwf	(CMDledTask@j+1)^0,w,c
  5616  00014C  A4D8               	btfss	status,2,c
  5617  00014E  EFAB  F000         	goto	u6431
  5618  000152  EFAD  F000         	goto	u6430
  5619  000156                     u6431:
  5620  000156  EFD4  F000         	goto	l4602
  5621  00015A                     u6430:
  5622  00015A  5035               	movf	CMDledTask@i^0,w,c
  5623  00015C  1036               	iorwf	(CMDledTask@i+1)^0,w,c
  5624  00015E  A4D8               	btfss	status,2,c
  5625  000160  EFB4  F000         	goto	u6441
  5626  000164  EFB6  F000         	goto	u6440
  5627  000168                     u6441:
  5628  000168  EFD4  F000         	goto	l4602
  5629  00016C                     u6440:
  5630  00016C                     
  5631                           ;the3.c: 1030:       {;the3.c: 1031:         bitStatus = ((charmap[customNum][0] >> j) &
      +                           1);
  5632  00016C  C038  F033         	movff	CMDledTask@j,??_CMDledTask
  5633  000170  5020               	movf	_customNum^0,w,c
  5634  000172  0D08               	mullw	8
  5635  000174  0EB6               	movlw	low _charmap
  5636  000176  24F3               	addwf	243,w,c
  5637  000178  6ED9               	movwf	fsr2l,c
  5638  00017A  0E00               	movlw	high _charmap
  5639  00017C  20F4               	addwfc	prodh,w,c
  5640  00017E  6EDA               	movwf	fsr2h,c
  5641  000180  50DF               	movf	indf2,w,c
  5642  000182  6E34               	movwf	(??_CMDledTask+1)^0,c
  5643  000184  2A33               	incf	??_CMDledTask^0,f,c
  5644  000186  EFC7  F000         	goto	u6454
  5645  00018A                     u6455:
  5646  00018A  90D8               	bcf	status,0,c
  5647  00018C  3234               	rrcf	(??_CMDledTask+1)^0,f,c
  5648  00018E                     u6454:
  5649  00018E  2E33               	decfsz	??_CMDledTask^0,f,c
  5650  000190  EFC5  F000         	goto	u6455
  5651  000194  5034               	movf	(??_CMDledTask+1)^0,w,c
  5652  000196  0B01               	andlw	1
  5653  000198  6E37               	movwf	CMDledTask@bitStatus^0,c
  5654  00019A                     
  5655                           ;the3.c: 1032:         PORTDbits.RD0 = bitStatus;
  5656  00019A  B037               	btfsc	CMDledTask@bitStatus^0,0,c
  5657  00019C  D002               	bra	u6465
  5658  00019E  9083               	bcf	131,0,c	;volatile
  5659  0001A0  D001               	bra	u6466
  5660  0001A2                     u6465:
  5661  0001A2  8083               	bsf	131,0,c	;volatile
  5662  0001A4                     u6466:
  5663                           
  5664                           ;the3.c: 1033:       }
  5665  0001A4  EFDD  F005         	goto	l4810
  5666  0001A8                     l4602:
  5667  0001A8  0E04               	movlw	4
  5668  0001AA  1838               	xorwf	CMDledTask@j^0,w,c
  5669  0001AC  1039               	iorwf	(CMDledTask@j+1)^0,w,c
  5670  0001AE  A4D8               	btfss	status,2,c
  5671  0001B0  EFDC  F000         	goto	u6471
  5672  0001B4  EFDE  F000         	goto	u6470
  5673  0001B8                     u6471:
  5674  0001B8  EF05  F001         	goto	l4610
  5675  0001BC                     u6470:
  5676  0001BC  0435               	decf	CMDledTask@i^0,w,c
  5677  0001BE  1036               	iorwf	(CMDledTask@i+1)^0,w,c
  5678  0001C0  A4D8               	btfss	status,2,c
  5679  0001C2  EFE5  F000         	goto	u6481
  5680  0001C6  EFE7  F000         	goto	u6480
  5681  0001CA                     u6481:
  5682  0001CA  EF05  F001         	goto	l4610
  5683  0001CE                     u6480:
  5684  0001CE                     
  5685                           ;the3.c: 1036:       {;the3.c: 1037:         bitStatus = ((charmap[customNum][1] >> j) &
      +                           1);
  5686  0001CE  C038  F033         	movff	CMDledTask@j,??_CMDledTask
  5687  0001D2  5020               	movf	_customNum^0,w,c
  5688  0001D4  0D08               	mullw	8
  5689  0001D6  0EB7               	movlw	low (_charmap+1)
  5690  0001D8  24F3               	addwf	243,w,c
  5691  0001DA  6ED9               	movwf	fsr2l,c
  5692  0001DC  0E00               	movlw	high (_charmap+1)
  5693  0001DE  20F4               	addwfc	prodh,w,c
  5694  0001E0  6EDA               	movwf	fsr2h,c
  5695  0001E2  50DF               	movf	indf2,w,c
  5696  0001E4  6E34               	movwf	(??_CMDledTask+1)^0,c
  5697  0001E6  2A33               	incf	??_CMDledTask^0,f,c
  5698  0001E8  EFF8  F000         	goto	u6494
  5699  0001EC                     u6495:
  5700  0001EC  90D8               	bcf	status,0,c
  5701  0001EE  3234               	rrcf	(??_CMDledTask+1)^0,f,c
  5702  0001F0                     u6494:
  5703  0001F0  2E33               	decfsz	??_CMDledTask^0,f,c
  5704  0001F2  EFF6  F000         	goto	u6495
  5705  0001F6  5034               	movf	(??_CMDledTask+1)^0,w,c
  5706  0001F8  0B01               	andlw	1
  5707  0001FA  6E37               	movwf	CMDledTask@bitStatus^0,c
  5708  0001FC                     
  5709                           ;the3.c: 1038:         PORTAbits.RA1 = bitStatus;
  5710  0001FC  B037               	btfsc	CMDledTask@bitStatus^0,0,c
  5711  0001FE  D002               	bra	u6505
  5712  000200  9280               	bcf	128,1,c	;volatile
  5713  000202  D001               	bra	u6506
  5714  000204                     u6505:
  5715  000204  8280               	bsf	128,1,c	;volatile
  5716  000206                     u6506:
  5717                           
  5718                           ;the3.c: 1039:       }
  5719  000206  EFDD  F005         	goto	l4810
  5720  00020A                     l4610:
  5721  00020A  0E03               	movlw	3
  5722  00020C  1838               	xorwf	CMDledTask@j^0,w,c
  5723  00020E  1039               	iorwf	(CMDledTask@j+1)^0,w,c
  5724  000210  A4D8               	btfss	status,2,c
  5725  000212  EF0D  F001         	goto	u6511
  5726  000216  EF0F  F001         	goto	u6510
  5727  00021A                     u6511:
  5728  00021A  EF36  F001         	goto	l4618
  5729  00021E                     u6510:
  5730  00021E  0435               	decf	CMDledTask@i^0,w,c
  5731  000220  1036               	iorwf	(CMDledTask@i+1)^0,w,c
  5732  000222  A4D8               	btfss	status,2,c
  5733  000224  EF16  F001         	goto	u6521
  5734  000228  EF18  F001         	goto	u6520
  5735  00022C                     u6521:
  5736  00022C  EF36  F001         	goto	l4618
  5737  000230                     u6520:
  5738  000230                     
  5739                           ;the3.c: 1041:       {;the3.c: 1042:         bitStatus = ((charmap[customNum][1] >> j) &
      +                           1);
  5740  000230  C038  F033         	movff	CMDledTask@j,??_CMDledTask
  5741  000234  5020               	movf	_customNum^0,w,c
  5742  000236  0D08               	mullw	8
  5743  000238  0EB7               	movlw	low (_charmap+1)
  5744  00023A  24F3               	addwf	243,w,c
  5745  00023C  6ED9               	movwf	fsr2l,c
  5746  00023E  0E00               	movlw	high (_charmap+1)
  5747  000240  20F4               	addwfc	prodh,w,c
  5748  000242  6EDA               	movwf	fsr2h,c
  5749  000244  50DF               	movf	indf2,w,c
  5750  000246  6E34               	movwf	(??_CMDledTask+1)^0,c
  5751  000248  2A33               	incf	??_CMDledTask^0,f,c
  5752  00024A  EF29  F001         	goto	u6534
  5753  00024E                     u6535:
  5754  00024E  90D8               	bcf	status,0,c
  5755  000250  3234               	rrcf	(??_CMDledTask+1)^0,f,c
  5756  000252                     u6534:
  5757  000252  2E33               	decfsz	??_CMDledTask^0,f,c
  5758  000254  EF27  F001         	goto	u6535
  5759  000258  5034               	movf	(??_CMDledTask+1)^0,w,c
  5760  00025A  0B01               	andlw	1
  5761  00025C  6E37               	movwf	CMDledTask@bitStatus^0,c
  5762  00025E                     
  5763                           ;the3.c: 1043:         PORTBbits.RB1 = bitStatus;
  5764  00025E  B037               	btfsc	CMDledTask@bitStatus^0,0,c
  5765  000260  D002               	bra	u6545
  5766  000262  9281               	bcf	129,1,c	;volatile
  5767  000264  D001               	bra	u6546
  5768  000266                     u6545:
  5769  000266  8281               	bsf	129,1,c	;volatile
  5770  000268                     u6546:
  5771                           
  5772                           ;the3.c: 1044:       }
  5773  000268  EFDD  F005         	goto	l4810
  5774  00026C                     l4618:
  5775  00026C  0E02               	movlw	2
  5776  00026E  1838               	xorwf	CMDledTask@j^0,w,c
  5777  000270  1039               	iorwf	(CMDledTask@j+1)^0,w,c
  5778  000272  A4D8               	btfss	status,2,c
  5779  000274  EF3E  F001         	goto	u6551
  5780  000278  EF40  F001         	goto	u6550
  5781  00027C                     u6551:
  5782  00027C  EF67  F001         	goto	l4626
  5783  000280                     u6550:
  5784  000280  0435               	decf	CMDledTask@i^0,w,c
  5785  000282  1036               	iorwf	(CMDledTask@i+1)^0,w,c
  5786  000284  A4D8               	btfss	status,2,c
  5787  000286  EF47  F001         	goto	u6561
  5788  00028A  EF49  F001         	goto	u6560
  5789  00028E                     u6561:
  5790  00028E  EF67  F001         	goto	l4626
  5791  000292                     u6560:
  5792  000292                     
  5793                           ;the3.c: 1046:       {;the3.c: 1047:         bitStatus = ((charmap[customNum][1] >> j) &
      +                           1);
  5794  000292  C038  F033         	movff	CMDledTask@j,??_CMDledTask
  5795  000296  5020               	movf	_customNum^0,w,c
  5796  000298  0D08               	mullw	8
  5797  00029A  0EB7               	movlw	low (_charmap+1)
  5798  00029C  24F3               	addwf	243,w,c
  5799  00029E  6ED9               	movwf	fsr2l,c
  5800  0002A0  0E00               	movlw	high (_charmap+1)
  5801  0002A2  20F4               	addwfc	prodh,w,c
  5802  0002A4  6EDA               	movwf	fsr2h,c
  5803  0002A6  50DF               	movf	indf2,w,c
  5804  0002A8  6E34               	movwf	(??_CMDledTask+1)^0,c
  5805  0002AA  2A33               	incf	??_CMDledTask^0,f,c
  5806  0002AC  EF5A  F001         	goto	u6574
  5807  0002B0                     u6575:
  5808  0002B0  90D8               	bcf	status,0,c
  5809  0002B2  3234               	rrcf	(??_CMDledTask+1)^0,f,c
  5810  0002B4                     u6574:
  5811  0002B4  2E33               	decfsz	??_CMDledTask^0,f,c
  5812  0002B6  EF58  F001         	goto	u6575
  5813  0002BA  5034               	movf	(??_CMDledTask+1)^0,w,c
  5814  0002BC  0B01               	andlw	1
  5815  0002BE  6E37               	movwf	CMDledTask@bitStatus^0,c
  5816  0002C0                     
  5817                           ;the3.c: 1048:         PORTCbits.RC1 = bitStatus;
  5818  0002C0  B037               	btfsc	CMDledTask@bitStatus^0,0,c
  5819  0002C2  D002               	bra	u6585
  5820  0002C4  9282               	bcf	130,1,c	;volatile
  5821  0002C6  D001               	bra	u6586
  5822  0002C8                     u6585:
  5823  0002C8  8282               	bsf	130,1,c	;volatile
  5824  0002CA                     u6586:
  5825                           
  5826                           ;the3.c: 1049:       }
  5827  0002CA  EFDD  F005         	goto	l4810
  5828  0002CE                     l4626:
  5829  0002CE  0438               	decf	CMDledTask@j^0,w,c
  5830  0002D0  1039               	iorwf	(CMDledTask@j+1)^0,w,c
  5831  0002D2  A4D8               	btfss	status,2,c
  5832  0002D4  EF6E  F001         	goto	u6591
  5833  0002D8  EF70  F001         	goto	u6590
  5834  0002DC                     u6591:
  5835  0002DC  EF97  F001         	goto	l4634
  5836  0002E0                     u6590:
  5837  0002E0  0435               	decf	CMDledTask@i^0,w,c
  5838  0002E2  1036               	iorwf	(CMDledTask@i+1)^0,w,c
  5839  0002E4  A4D8               	btfss	status,2,c
  5840  0002E6  EF77  F001         	goto	u6601
  5841  0002EA  EF79  F001         	goto	u6600
  5842  0002EE                     u6601:
  5843  0002EE  EF97  F001         	goto	l4634
  5844  0002F2                     u6600:
  5845  0002F2                     
  5846                           ;the3.c: 1051:       {;the3.c: 1052:         bitStatus = ((charmap[customNum][1] >> j) &
      +                           1);
  5847  0002F2  C038  F033         	movff	CMDledTask@j,??_CMDledTask
  5848  0002F6  5020               	movf	_customNum^0,w,c
  5849  0002F8  0D08               	mullw	8
  5850  0002FA  0EB7               	movlw	low (_charmap+1)
  5851  0002FC  24F3               	addwf	243,w,c
  5852  0002FE  6ED9               	movwf	fsr2l,c
  5853  000300  0E00               	movlw	high (_charmap+1)
  5854  000302  20F4               	addwfc	prodh,w,c
  5855  000304  6EDA               	movwf	fsr2h,c
  5856  000306  50DF               	movf	indf2,w,c
  5857  000308  6E34               	movwf	(??_CMDledTask+1)^0,c
  5858  00030A  2A33               	incf	??_CMDledTask^0,f,c
  5859  00030C  EF8A  F001         	goto	u6614
  5860  000310                     u6615:
  5861  000310  90D8               	bcf	status,0,c
  5862  000312  3234               	rrcf	(??_CMDledTask+1)^0,f,c
  5863  000314                     u6614:
  5864  000314  2E33               	decfsz	??_CMDledTask^0,f,c
  5865  000316  EF88  F001         	goto	u6615
  5866  00031A  5034               	movf	(??_CMDledTask+1)^0,w,c
  5867  00031C  0B01               	andlw	1
  5868  00031E  6E37               	movwf	CMDledTask@bitStatus^0,c
  5869  000320                     
  5870                           ;the3.c: 1053:         PORTDbits.RD1 = bitStatus;
  5871  000320  B037               	btfsc	CMDledTask@bitStatus^0,0,c
  5872  000322  D002               	bra	u6625
  5873  000324  9283               	bcf	131,1,c	;volatile
  5874  000326  D001               	bra	u6626
  5875  000328                     u6625:
  5876  000328  8283               	bsf	131,1,c	;volatile
  5877  00032A                     u6626:
  5878                           
  5879                           ;the3.c: 1054:       }
  5880  00032A  EFDD  F005         	goto	l4810
  5881  00032E                     l4634:
  5882  00032E  0E04               	movlw	4
  5883  000330  1838               	xorwf	CMDledTask@j^0,w,c
  5884  000332  1039               	iorwf	(CMDledTask@j+1)^0,w,c
  5885  000334  A4D8               	btfss	status,2,c
  5886  000336  EF9F  F001         	goto	u6631
  5887  00033A  EFA1  F001         	goto	u6630
  5888  00033E                     u6631:
  5889  00033E  EFC9  F001         	goto	l4642
  5890  000342                     u6630:
  5891  000342  0E02               	movlw	2
  5892  000344  1835               	xorwf	CMDledTask@i^0,w,c
  5893  000346  1036               	iorwf	(CMDledTask@i+1)^0,w,c
  5894  000348  A4D8               	btfss	status,2,c
  5895  00034A  EFA9  F001         	goto	u6641
  5896  00034E  EFAB  F001         	goto	u6640
  5897  000352                     u6641:
  5898  000352  EFC9  F001         	goto	l4642
  5899  000356                     u6640:
  5900  000356                     
  5901                           ;the3.c: 1057:       {;the3.c: 1058:         bitStatus = ((charmap[customNum][2] >> j) &
      +                           1);
  5902  000356  C038  F033         	movff	CMDledTask@j,??_CMDledTask
  5903  00035A  5020               	movf	_customNum^0,w,c
  5904  00035C  0D08               	mullw	8
  5905  00035E  0EB8               	movlw	low (_charmap+2)
  5906  000360  24F3               	addwf	243,w,c
  5907  000362  6ED9               	movwf	fsr2l,c
  5908  000364  0E00               	movlw	high (_charmap+2)
  5909  000366  20F4               	addwfc	prodh,w,c
  5910  000368  6EDA               	movwf	fsr2h,c
  5911  00036A  50DF               	movf	indf2,w,c
  5912  00036C  6E34               	movwf	(??_CMDledTask+1)^0,c
  5913  00036E  2A33               	incf	??_CMDledTask^0,f,c
  5914  000370  EFBC  F001         	goto	u6654
  5915  000374                     u6655:
  5916  000374  90D8               	bcf	status,0,c
  5917  000376  3234               	rrcf	(??_CMDledTask+1)^0,f,c
  5918  000378                     u6654:
  5919  000378  2E33               	decfsz	??_CMDledTask^0,f,c
  5920  00037A  EFBA  F001         	goto	u6655
  5921  00037E  5034               	movf	(??_CMDledTask+1)^0,w,c
  5922  000380  0B01               	andlw	1
  5923  000382  6E37               	movwf	CMDledTask@bitStatus^0,c
  5924  000384                     
  5925                           ;the3.c: 1059:         PORTAbits.RA2 = bitStatus;
  5926  000384  B037               	btfsc	CMDledTask@bitStatus^0,0,c
  5927  000386  D002               	bra	u6665
  5928  000388  9480               	bcf	128,2,c	;volatile
  5929  00038A  D001               	bra	u6666
  5930  00038C                     u6665:
  5931  00038C  8480               	bsf	128,2,c	;volatile
  5932  00038E                     u6666:
  5933                           
  5934                           ;the3.c: 1060:       }
  5935  00038E  EFDD  F005         	goto	l4810
  5936  000392                     l4642:
  5937  000392  0E03               	movlw	3
  5938  000394  1838               	xorwf	CMDledTask@j^0,w,c
  5939  000396  1039               	iorwf	(CMDledTask@j+1)^0,w,c
  5940  000398  A4D8               	btfss	status,2,c
  5941  00039A  EFD1  F001         	goto	u6671
  5942  00039E  EFD3  F001         	goto	u6670
  5943  0003A2                     u6671:
  5944  0003A2  EFFB  F001         	goto	l4650
  5945  0003A6                     u6670:
  5946  0003A6  0E02               	movlw	2
  5947  0003A8  1835               	xorwf	CMDledTask@i^0,w,c
  5948  0003AA  1036               	iorwf	(CMDledTask@i+1)^0,w,c
  5949  0003AC  A4D8               	btfss	status,2,c
  5950  0003AE  EFDB  F001         	goto	u6681
  5951  0003B2  EFDD  F001         	goto	u6680
  5952  0003B6                     u6681:
  5953  0003B6  EFFB  F001         	goto	l4650
  5954  0003BA                     u6680:
  5955  0003BA                     
  5956                           ;the3.c: 1062:       {;the3.c: 1063:         bitStatus = ((charmap[customNum][2] >> j) &
      +                           1);
  5957  0003BA  C038  F033         	movff	CMDledTask@j,??_CMDledTask
  5958  0003BE  5020               	movf	_customNum^0,w,c
  5959  0003C0  0D08               	mullw	8
  5960  0003C2  0EB8               	movlw	low (_charmap+2)
  5961  0003C4  24F3               	addwf	243,w,c
  5962  0003C6  6ED9               	movwf	fsr2l,c
  5963  0003C8  0E00               	movlw	high (_charmap+2)
  5964  0003CA  20F4               	addwfc	prodh,w,c
  5965  0003CC  6EDA               	movwf	fsr2h,c
  5966  0003CE  50DF               	movf	indf2,w,c
  5967  0003D0  6E34               	movwf	(??_CMDledTask+1)^0,c
  5968  0003D2  2A33               	incf	??_CMDledTask^0,f,c
  5969  0003D4  EFEE  F001         	goto	u6694
  5970  0003D8                     u6695:
  5971  0003D8  90D8               	bcf	status,0,c
  5972  0003DA  3234               	rrcf	(??_CMDledTask+1)^0,f,c
  5973  0003DC                     u6694:
  5974  0003DC  2E33               	decfsz	??_CMDledTask^0,f,c
  5975  0003DE  EFEC  F001         	goto	u6695
  5976  0003E2  5034               	movf	(??_CMDledTask+1)^0,w,c
  5977  0003E4  0B01               	andlw	1
  5978  0003E6  6E37               	movwf	CMDledTask@bitStatus^0,c
  5979  0003E8                     
  5980                           ;the3.c: 1064:         PORTBbits.RB2 = bitStatus;
  5981  0003E8  B037               	btfsc	CMDledTask@bitStatus^0,0,c
  5982  0003EA  D002               	bra	u6705
  5983  0003EC  9481               	bcf	129,2,c	;volatile
  5984  0003EE  D001               	bra	u6706
  5985  0003F0                     u6705:
  5986  0003F0  8481               	bsf	129,2,c	;volatile
  5987  0003F2                     u6706:
  5988                           
  5989                           ;the3.c: 1065:       }
  5990  0003F2  EFDD  F005         	goto	l4810
  5991  0003F6                     l4650:
  5992  0003F6  0E02               	movlw	2
  5993  0003F8  1838               	xorwf	CMDledTask@j^0,w,c
  5994  0003FA  1039               	iorwf	(CMDledTask@j+1)^0,w,c
  5995  0003FC  A4D8               	btfss	status,2,c
  5996  0003FE  EF03  F002         	goto	u6711
  5997  000402  EF05  F002         	goto	u6710
  5998  000406                     u6711:
  5999  000406  EF2D  F002         	goto	l4658
  6000  00040A                     u6710:
  6001  00040A  0E02               	movlw	2
  6002  00040C  1835               	xorwf	CMDledTask@i^0,w,c
  6003  00040E  1036               	iorwf	(CMDledTask@i+1)^0,w,c
  6004  000410  A4D8               	btfss	status,2,c
  6005  000412  EF0D  F002         	goto	u6721
  6006  000416  EF0F  F002         	goto	u6720
  6007  00041A                     u6721:
  6008  00041A  EF2D  F002         	goto	l4658
  6009  00041E                     u6720:
  6010  00041E                     
  6011                           ;the3.c: 1067:       {;the3.c: 1068:         bitStatus = ((charmap[customNum][2] >> j) &
      +                           1);
  6012  00041E  C038  F033         	movff	CMDledTask@j,??_CMDledTask
  6013  000422  5020               	movf	_customNum^0,w,c
  6014  000424  0D08               	mullw	8
  6015  000426  0EB8               	movlw	low (_charmap+2)
  6016  000428  24F3               	addwf	243,w,c
  6017  00042A  6ED9               	movwf	fsr2l,c
  6018  00042C  0E00               	movlw	high (_charmap+2)
  6019  00042E  20F4               	addwfc	prodh,w,c
  6020  000430  6EDA               	movwf	fsr2h,c
  6021  000432  50DF               	movf	indf2,w,c
  6022  000434  6E34               	movwf	(??_CMDledTask+1)^0,c
  6023  000436  2A33               	incf	??_CMDledTask^0,f,c
  6024  000438  EF20  F002         	goto	u6734
  6025  00043C                     u6735:
  6026  00043C  90D8               	bcf	status,0,c
  6027  00043E  3234               	rrcf	(??_CMDledTask+1)^0,f,c
  6028  000440                     u6734:
  6029  000440  2E33               	decfsz	??_CMDledTask^0,f,c
  6030  000442  EF1E  F002         	goto	u6735
  6031  000446  5034               	movf	(??_CMDledTask+1)^0,w,c
  6032  000448  0B01               	andlw	1
  6033  00044A  6E37               	movwf	CMDledTask@bitStatus^0,c
  6034  00044C                     
  6035                           ;the3.c: 1069:         PORTCbits.RC2 = bitStatus;
  6036  00044C  B037               	btfsc	CMDledTask@bitStatus^0,0,c
  6037  00044E  D002               	bra	u6745
  6038  000450  9482               	bcf	130,2,c	;volatile
  6039  000452  D001               	bra	u6746
  6040  000454                     u6745:
  6041  000454  8482               	bsf	130,2,c	;volatile
  6042  000456                     u6746:
  6043                           
  6044                           ;the3.c: 1070:       }
  6045  000456  EFDD  F005         	goto	l4810
  6046  00045A                     l4658:
  6047  00045A  0438               	decf	CMDledTask@j^0,w,c
  6048  00045C  1039               	iorwf	(CMDledTask@j+1)^0,w,c
  6049  00045E  A4D8               	btfss	status,2,c
  6050  000460  EF34  F002         	goto	u6751
  6051  000464  EF36  F002         	goto	u6750
  6052  000468                     u6751:
  6053  000468  EF5E  F002         	goto	l4666
  6054  00046C                     u6750:
  6055  00046C  0E02               	movlw	2
  6056  00046E  1835               	xorwf	CMDledTask@i^0,w,c
  6057  000470  1036               	iorwf	(CMDledTask@i+1)^0,w,c
  6058  000472  A4D8               	btfss	status,2,c
  6059  000474  EF3E  F002         	goto	u6761
  6060  000478  EF40  F002         	goto	u6760
  6061  00047C                     u6761:
  6062  00047C  EF5E  F002         	goto	l4666
  6063  000480                     u6760:
  6064  000480                     
  6065                           ;the3.c: 1072:       {;the3.c: 1073:         bitStatus = ((charmap[customNum][2] >> j) &
      +                           1);
  6066  000480  C038  F033         	movff	CMDledTask@j,??_CMDledTask
  6067  000484  5020               	movf	_customNum^0,w,c
  6068  000486  0D08               	mullw	8
  6069  000488  0EB8               	movlw	low (_charmap+2)
  6070  00048A  24F3               	addwf	243,w,c
  6071  00048C  6ED9               	movwf	fsr2l,c
  6072  00048E  0E00               	movlw	high (_charmap+2)
  6073  000490  20F4               	addwfc	prodh,w,c
  6074  000492  6EDA               	movwf	fsr2h,c
  6075  000494  50DF               	movf	indf2,w,c
  6076  000496  6E34               	movwf	(??_CMDledTask+1)^0,c
  6077  000498  2A33               	incf	??_CMDledTask^0,f,c
  6078  00049A  EF51  F002         	goto	u6774
  6079  00049E                     u6775:
  6080  00049E  90D8               	bcf	status,0,c
  6081  0004A0  3234               	rrcf	(??_CMDledTask+1)^0,f,c
  6082  0004A2                     u6774:
  6083  0004A2  2E33               	decfsz	??_CMDledTask^0,f,c
  6084  0004A4  EF4F  F002         	goto	u6775
  6085  0004A8  5034               	movf	(??_CMDledTask+1)^0,w,c
  6086  0004AA  0B01               	andlw	1
  6087  0004AC  6E37               	movwf	CMDledTask@bitStatus^0,c
  6088  0004AE                     
  6089                           ;the3.c: 1074:         PORTDbits.RD2 = bitStatus;
  6090  0004AE  B037               	btfsc	CMDledTask@bitStatus^0,0,c
  6091  0004B0  D002               	bra	u6785
  6092  0004B2  9483               	bcf	131,2,c	;volatile
  6093  0004B4  D001               	bra	u6786
  6094  0004B6                     u6785:
  6095  0004B6  8483               	bsf	131,2,c	;volatile
  6096  0004B8                     u6786:
  6097                           
  6098                           ;the3.c: 1075:       }
  6099  0004B8  EFDD  F005         	goto	l4810
  6100  0004BC                     l4666:
  6101  0004BC  0E04               	movlw	4
  6102  0004BE  1838               	xorwf	CMDledTask@j^0,w,c
  6103  0004C0  1039               	iorwf	(CMDledTask@j+1)^0,w,c
  6104  0004C2  A4D8               	btfss	status,2,c
  6105  0004C4  EF66  F002         	goto	u6791
  6106  0004C8  EF68  F002         	goto	u6790
  6107  0004CC                     u6791:
  6108  0004CC  EF90  F002         	goto	l4674
  6109  0004D0                     u6790:
  6110  0004D0  0E03               	movlw	3
  6111  0004D2  1835               	xorwf	CMDledTask@i^0,w,c
  6112  0004D4  1036               	iorwf	(CMDledTask@i+1)^0,w,c
  6113  0004D6  A4D8               	btfss	status,2,c
  6114  0004D8  EF70  F002         	goto	u6801
  6115  0004DC  EF72  F002         	goto	u6800
  6116  0004E0                     u6801:
  6117  0004E0  EF90  F002         	goto	l4674
  6118  0004E4                     u6800:
  6119  0004E4                     
  6120                           ;the3.c: 1077:       {;the3.c: 1078:         bitStatus = ((charmap[customNum][3] >> j) &
      +                           1);
  6121  0004E4  C038  F033         	movff	CMDledTask@j,??_CMDledTask
  6122  0004E8  5020               	movf	_customNum^0,w,c
  6123  0004EA  0D08               	mullw	8
  6124  0004EC  0EB9               	movlw	low (_charmap+3)
  6125  0004EE  24F3               	addwf	243,w,c
  6126  0004F0  6ED9               	movwf	fsr2l,c
  6127  0004F2  0E00               	movlw	high (_charmap+3)
  6128  0004F4  20F4               	addwfc	prodh,w,c
  6129  0004F6  6EDA               	movwf	fsr2h,c
  6130  0004F8  50DF               	movf	indf2,w,c
  6131  0004FA  6E34               	movwf	(??_CMDledTask+1)^0,c
  6132  0004FC  2A33               	incf	??_CMDledTask^0,f,c
  6133  0004FE  EF83  F002         	goto	u6814
  6134  000502                     u6815:
  6135  000502  90D8               	bcf	status,0,c
  6136  000504  3234               	rrcf	(??_CMDledTask+1)^0,f,c
  6137  000506                     u6814:
  6138  000506  2E33               	decfsz	??_CMDledTask^0,f,c
  6139  000508  EF81  F002         	goto	u6815
  6140  00050C  5034               	movf	(??_CMDledTask+1)^0,w,c
  6141  00050E  0B01               	andlw	1
  6142  000510  6E37               	movwf	CMDledTask@bitStatus^0,c
  6143  000512                     
  6144                           ;the3.c: 1079:         PORTAbits.RA3 = bitStatus;
  6145  000512  B037               	btfsc	CMDledTask@bitStatus^0,0,c
  6146  000514  D002               	bra	u6825
  6147  000516  9680               	bcf	128,3,c	;volatile
  6148  000518  D001               	bra	u6826
  6149  00051A                     u6825:
  6150  00051A  8680               	bsf	128,3,c	;volatile
  6151  00051C                     u6826:
  6152                           
  6153                           ;the3.c: 1080:       }
  6154  00051C  EFDD  F005         	goto	l4810
  6155  000520                     l4674:
  6156  000520  0E03               	movlw	3
  6157  000522  1838               	xorwf	CMDledTask@j^0,w,c
  6158  000524  1039               	iorwf	(CMDledTask@j+1)^0,w,c
  6159  000526  A4D8               	btfss	status,2,c
  6160  000528  EF98  F002         	goto	u6831
  6161  00052C  EF9A  F002         	goto	u6830
  6162  000530                     u6831:
  6163  000530  EFC2  F002         	goto	l4682
  6164  000534                     u6830:
  6165  000534  0E03               	movlw	3
  6166  000536  1835               	xorwf	CMDledTask@i^0,w,c
  6167  000538  1036               	iorwf	(CMDledTask@i+1)^0,w,c
  6168  00053A  A4D8               	btfss	status,2,c
  6169  00053C  EFA2  F002         	goto	u6841
  6170  000540  EFA4  F002         	goto	u6840
  6171  000544                     u6841:
  6172  000544  EFC2  F002         	goto	l4682
  6173  000548                     u6840:
  6174  000548                     
  6175                           ;the3.c: 1082:       {;the3.c: 1083:         bitStatus = ((charmap[customNum][3] >> j) &
      +                           1);
  6176  000548  C038  F033         	movff	CMDledTask@j,??_CMDledTask
  6177  00054C  5020               	movf	_customNum^0,w,c
  6178  00054E  0D08               	mullw	8
  6179  000550  0EB9               	movlw	low (_charmap+3)
  6180  000552  24F3               	addwf	243,w,c
  6181  000554  6ED9               	movwf	fsr2l,c
  6182  000556  0E00               	movlw	high (_charmap+3)
  6183  000558  20F4               	addwfc	prodh,w,c
  6184  00055A  6EDA               	movwf	fsr2h,c
  6185  00055C  50DF               	movf	indf2,w,c
  6186  00055E  6E34               	movwf	(??_CMDledTask+1)^0,c
  6187  000560  2A33               	incf	??_CMDledTask^0,f,c
  6188  000562  EFB5  F002         	goto	u6854
  6189  000566                     u6855:
  6190  000566  90D8               	bcf	status,0,c
  6191  000568  3234               	rrcf	(??_CMDledTask+1)^0,f,c
  6192  00056A                     u6854:
  6193  00056A  2E33               	decfsz	??_CMDledTask^0,f,c
  6194  00056C  EFB3  F002         	goto	u6855
  6195  000570  5034               	movf	(??_CMDledTask+1)^0,w,c
  6196  000572  0B01               	andlw	1
  6197  000574  6E37               	movwf	CMDledTask@bitStatus^0,c
  6198  000576                     
  6199                           ;the3.c: 1084:         PORTBbits.RB3 = bitStatus;
  6200  000576  B037               	btfsc	CMDledTask@bitStatus^0,0,c
  6201  000578  D002               	bra	u6865
  6202  00057A  9681               	bcf	129,3,c	;volatile
  6203  00057C  D001               	bra	u6866
  6204  00057E                     u6865:
  6205  00057E  8681               	bsf	129,3,c	;volatile
  6206  000580                     u6866:
  6207                           
  6208                           ;the3.c: 1085:       }
  6209  000580  EFDD  F005         	goto	l4810
  6210  000584                     l4682:
  6211  000584  0E02               	movlw	2
  6212  000586  1838               	xorwf	CMDledTask@j^0,w,c
  6213  000588  1039               	iorwf	(CMDledTask@j+1)^0,w,c
  6214  00058A  A4D8               	btfss	status,2,c
  6215  00058C  EFCA  F002         	goto	u6871
  6216  000590  EFCC  F002         	goto	u6870
  6217  000594                     u6871:
  6218  000594  EFF4  F002         	goto	l4690
  6219  000598                     u6870:
  6220  000598  0E03               	movlw	3
  6221  00059A  1835               	xorwf	CMDledTask@i^0,w,c
  6222  00059C  1036               	iorwf	(CMDledTask@i+1)^0,w,c
  6223  00059E  A4D8               	btfss	status,2,c
  6224  0005A0  EFD4  F002         	goto	u6881
  6225  0005A4  EFD6  F002         	goto	u6880
  6226  0005A8                     u6881:
  6227  0005A8  EFF4  F002         	goto	l4690
  6228  0005AC                     u6880:
  6229  0005AC                     
  6230                           ;the3.c: 1087:       {;the3.c: 1088:         bitStatus = ((charmap[customNum][3] >> j) &
      +                           1);
  6231  0005AC  C038  F033         	movff	CMDledTask@j,??_CMDledTask
  6232  0005B0  5020               	movf	_customNum^0,w,c
  6233  0005B2  0D08               	mullw	8
  6234  0005B4  0EB9               	movlw	low (_charmap+3)
  6235  0005B6  24F3               	addwf	243,w,c
  6236  0005B8  6ED9               	movwf	fsr2l,c
  6237  0005BA  0E00               	movlw	high (_charmap+3)
  6238  0005BC  20F4               	addwfc	prodh,w,c
  6239  0005BE  6EDA               	movwf	fsr2h,c
  6240  0005C0  50DF               	movf	indf2,w,c
  6241  0005C2  6E34               	movwf	(??_CMDledTask+1)^0,c
  6242  0005C4  2A33               	incf	??_CMDledTask^0,f,c
  6243  0005C6  EFE7  F002         	goto	u6894
  6244  0005CA                     u6895:
  6245  0005CA  90D8               	bcf	status,0,c
  6246  0005CC  3234               	rrcf	(??_CMDledTask+1)^0,f,c
  6247  0005CE                     u6894:
  6248  0005CE  2E33               	decfsz	??_CMDledTask^0,f,c
  6249  0005D0  EFE5  F002         	goto	u6895
  6250  0005D4  5034               	movf	(??_CMDledTask+1)^0,w,c
  6251  0005D6  0B01               	andlw	1
  6252  0005D8  6E37               	movwf	CMDledTask@bitStatus^0,c
  6253  0005DA                     
  6254                           ;the3.c: 1089:         PORTCbits.RC3 = bitStatus;
  6255  0005DA  B037               	btfsc	CMDledTask@bitStatus^0,0,c
  6256  0005DC  D002               	bra	u6905
  6257  0005DE  9682               	bcf	130,3,c	;volatile
  6258  0005E0  D001               	bra	u6906
  6259  0005E2                     u6905:
  6260  0005E2  8682               	bsf	130,3,c	;volatile
  6261  0005E4                     u6906:
  6262                           
  6263                           ;the3.c: 1090:       }
  6264  0005E4  EFDD  F005         	goto	l4810
  6265  0005E8                     l4690:
  6266  0005E8  0438               	decf	CMDledTask@j^0,w,c
  6267  0005EA  1039               	iorwf	(CMDledTask@j+1)^0,w,c
  6268  0005EC  A4D8               	btfss	status,2,c
  6269  0005EE  EFFB  F002         	goto	u6911
  6270  0005F2  EFFD  F002         	goto	u6910
  6271  0005F6                     u6911:
  6272  0005F6  EF25  F003         	goto	l4698
  6273  0005FA                     u6910:
  6274  0005FA  0E03               	movlw	3
  6275  0005FC  1835               	xorwf	CMDledTask@i^0,w,c
  6276  0005FE  1036               	iorwf	(CMDledTask@i+1)^0,w,c
  6277  000600  A4D8               	btfss	status,2,c
  6278  000602  EF05  F003         	goto	u6921
  6279  000606  EF07  F003         	goto	u6920
  6280  00060A                     u6921:
  6281  00060A  EF25  F003         	goto	l4698
  6282  00060E                     u6920:
  6283  00060E                     
  6284                           ;the3.c: 1092:       {;the3.c: 1093:         bitStatus = ((charmap[customNum][3] >> j) &
      +                           1);
  6285  00060E  C038  F033         	movff	CMDledTask@j,??_CMDledTask
  6286  000612  5020               	movf	_customNum^0,w,c
  6287  000614  0D08               	mullw	8
  6288  000616  0EB9               	movlw	low (_charmap+3)
  6289  000618  24F3               	addwf	243,w,c
  6290  00061A  6ED9               	movwf	fsr2l,c
  6291  00061C  0E00               	movlw	high (_charmap+3)
  6292  00061E  20F4               	addwfc	prodh,w,c
  6293  000620  6EDA               	movwf	fsr2h,c
  6294  000622  50DF               	movf	indf2,w,c
  6295  000624  6E34               	movwf	(??_CMDledTask+1)^0,c
  6296  000626  2A33               	incf	??_CMDledTask^0,f,c
  6297  000628  EF18  F003         	goto	u6934
  6298  00062C                     u6935:
  6299  00062C  90D8               	bcf	status,0,c
  6300  00062E  3234               	rrcf	(??_CMDledTask+1)^0,f,c
  6301  000630                     u6934:
  6302  000630  2E33               	decfsz	??_CMDledTask^0,f,c
  6303  000632  EF16  F003         	goto	u6935
  6304  000636  5034               	movf	(??_CMDledTask+1)^0,w,c
  6305  000638  0B01               	andlw	1
  6306  00063A  6E37               	movwf	CMDledTask@bitStatus^0,c
  6307  00063C                     
  6308                           ;the3.c: 1094:         PORTDbits.RD3 = bitStatus;
  6309  00063C  B037               	btfsc	CMDledTask@bitStatus^0,0,c
  6310  00063E  D002               	bra	u6945
  6311  000640  9683               	bcf	131,3,c	;volatile
  6312  000642  D001               	bra	u6946
  6313  000644                     u6945:
  6314  000644  8683               	bsf	131,3,c	;volatile
  6315  000646                     u6946:
  6316                           
  6317                           ;the3.c: 1095:       }
  6318  000646  EFDD  F005         	goto	l4810
  6319  00064A                     l4698:
  6320  00064A  0E04               	movlw	4
  6321  00064C  1838               	xorwf	CMDledTask@j^0,w,c
  6322  00064E  1039               	iorwf	(CMDledTask@j+1)^0,w,c
  6323  000650  A4D8               	btfss	status,2,c
  6324  000652  EF2D  F003         	goto	u6951
  6325  000656  EF2F  F003         	goto	u6950
  6326  00065A                     u6951:
  6327  00065A  EF57  F003         	goto	l4706
  6328  00065E                     u6950:
  6329  00065E  0E04               	movlw	4
  6330  000660  1835               	xorwf	CMDledTask@i^0,w,c
  6331  000662  1036               	iorwf	(CMDledTask@i+1)^0,w,c
  6332  000664  A4D8               	btfss	status,2,c
  6333  000666  EF37  F003         	goto	u6961
  6334  00066A  EF39  F003         	goto	u6960
  6335  00066E                     u6961:
  6336  00066E  EF57  F003         	goto	l4706
  6337  000672                     u6960:
  6338  000672                     
  6339                           ;the3.c: 1097:       {;the3.c: 1098:         bitStatus = ((charmap[customNum][4] >> j) &
      +                           1);
  6340  000672  C038  F033         	movff	CMDledTask@j,??_CMDledTask
  6341  000676  5020               	movf	_customNum^0,w,c
  6342  000678  0D08               	mullw	8
  6343  00067A  0EBA               	movlw	low (_charmap+4)
  6344  00067C  24F3               	addwf	243,w,c
  6345  00067E  6ED9               	movwf	fsr2l,c
  6346  000680  0E00               	movlw	high (_charmap+4)
  6347  000682  20F4               	addwfc	prodh,w,c
  6348  000684  6EDA               	movwf	fsr2h,c
  6349  000686  50DF               	movf	indf2,w,c
  6350  000688  6E34               	movwf	(??_CMDledTask+1)^0,c
  6351  00068A  2A33               	incf	??_CMDledTask^0,f,c
  6352  00068C  EF4A  F003         	goto	u6974
  6353  000690                     u6975:
  6354  000690  90D8               	bcf	status,0,c
  6355  000692  3234               	rrcf	(??_CMDledTask+1)^0,f,c
  6356  000694                     u6974:
  6357  000694  2E33               	decfsz	??_CMDledTask^0,f,c
  6358  000696  EF48  F003         	goto	u6975
  6359  00069A  5034               	movf	(??_CMDledTask+1)^0,w,c
  6360  00069C  0B01               	andlw	1
  6361  00069E  6E37               	movwf	CMDledTask@bitStatus^0,c
  6362  0006A0                     
  6363                           ;the3.c: 1099:         PORTAbits.RA4 = bitStatus;
  6364  0006A0  B037               	btfsc	CMDledTask@bitStatus^0,0,c
  6365  0006A2  D002               	bra	u6985
  6366  0006A4  9880               	bcf	128,4,c	;volatile
  6367  0006A6  D001               	bra	u6986
  6368  0006A8                     u6985:
  6369  0006A8  8880               	bsf	128,4,c	;volatile
  6370  0006AA                     u6986:
  6371                           
  6372                           ;the3.c: 1100:       }
  6373  0006AA  EFDD  F005         	goto	l4810
  6374  0006AE                     l4706:
  6375  0006AE  0E03               	movlw	3
  6376  0006B0  1838               	xorwf	CMDledTask@j^0,w,c
  6377  0006B2  1039               	iorwf	(CMDledTask@j+1)^0,w,c
  6378  0006B4  A4D8               	btfss	status,2,c
  6379  0006B6  EF5F  F003         	goto	u6991
  6380  0006BA  EF61  F003         	goto	u6990
  6381  0006BE                     u6991:
  6382  0006BE  EF89  F003         	goto	l4714
  6383  0006C2                     u6990:
  6384  0006C2  0E04               	movlw	4
  6385  0006C4  1835               	xorwf	CMDledTask@i^0,w,c
  6386  0006C6  1036               	iorwf	(CMDledTask@i+1)^0,w,c
  6387  0006C8  A4D8               	btfss	status,2,c
  6388  0006CA  EF69  F003         	goto	u7001
  6389  0006CE  EF6B  F003         	goto	u7000
  6390  0006D2                     u7001:
  6391  0006D2  EF89  F003         	goto	l4714
  6392  0006D6                     u7000:
  6393  0006D6                     
  6394                           ;the3.c: 1102:       {;the3.c: 1103:         bitStatus = ((charmap[customNum][4] >> j) &
      +                           1);
  6395  0006D6  C038  F033         	movff	CMDledTask@j,??_CMDledTask
  6396  0006DA  5020               	movf	_customNum^0,w,c
  6397  0006DC  0D08               	mullw	8
  6398  0006DE  0EBA               	movlw	low (_charmap+4)
  6399  0006E0  24F3               	addwf	243,w,c
  6400  0006E2  6ED9               	movwf	fsr2l,c
  6401  0006E4  0E00               	movlw	high (_charmap+4)
  6402  0006E6  20F4               	addwfc	prodh,w,c
  6403  0006E8  6EDA               	movwf	fsr2h,c
  6404  0006EA  50DF               	movf	indf2,w,c
  6405  0006EC  6E34               	movwf	(??_CMDledTask+1)^0,c
  6406  0006EE  2A33               	incf	??_CMDledTask^0,f,c
  6407  0006F0  EF7C  F003         	goto	u7014
  6408  0006F4                     u7015:
  6409  0006F4  90D8               	bcf	status,0,c
  6410  0006F6  3234               	rrcf	(??_CMDledTask+1)^0,f,c
  6411  0006F8                     u7014:
  6412  0006F8  2E33               	decfsz	??_CMDledTask^0,f,c
  6413  0006FA  EF7A  F003         	goto	u7015
  6414  0006FE  5034               	movf	(??_CMDledTask+1)^0,w,c
  6415  000700  0B01               	andlw	1
  6416  000702  6E37               	movwf	CMDledTask@bitStatus^0,c
  6417  000704                     
  6418                           ;the3.c: 1104:         PORTBbits.RB4 = bitStatus;
  6419  000704  B037               	btfsc	CMDledTask@bitStatus^0,0,c
  6420  000706  D002               	bra	u7025
  6421  000708  9881               	bcf	129,4,c	;volatile
  6422  00070A  D001               	bra	u7026
  6423  00070C                     u7025:
  6424  00070C  8881               	bsf	129,4,c	;volatile
  6425  00070E                     u7026:
  6426                           
  6427                           ;the3.c: 1105:       }
  6428  00070E  EFDD  F005         	goto	l4810
  6429  000712                     l4714:
  6430  000712  0E02               	movlw	2
  6431  000714  1838               	xorwf	CMDledTask@j^0,w,c
  6432  000716  1039               	iorwf	(CMDledTask@j+1)^0,w,c
  6433  000718  A4D8               	btfss	status,2,c
  6434  00071A  EF91  F003         	goto	u7031
  6435  00071E  EF93  F003         	goto	u7030
  6436  000722                     u7031:
  6437  000722  EFBB  F003         	goto	l4722
  6438  000726                     u7030:
  6439  000726  0E04               	movlw	4
  6440  000728  1835               	xorwf	CMDledTask@i^0,w,c
  6441  00072A  1036               	iorwf	(CMDledTask@i+1)^0,w,c
  6442  00072C  A4D8               	btfss	status,2,c
  6443  00072E  EF9B  F003         	goto	u7041
  6444  000732  EF9D  F003         	goto	u7040
  6445  000736                     u7041:
  6446  000736  EFBB  F003         	goto	l4722
  6447  00073A                     u7040:
  6448  00073A                     
  6449                           ;the3.c: 1107:       {;the3.c: 1108:         bitStatus = ((charmap[customNum][4] >> j) &
      +                           1);
  6450  00073A  C038  F033         	movff	CMDledTask@j,??_CMDledTask
  6451  00073E  5020               	movf	_customNum^0,w,c
  6452  000740  0D08               	mullw	8
  6453  000742  0EBA               	movlw	low (_charmap+4)
  6454  000744  24F3               	addwf	243,w,c
  6455  000746  6ED9               	movwf	fsr2l,c
  6456  000748  0E00               	movlw	high (_charmap+4)
  6457  00074A  20F4               	addwfc	prodh,w,c
  6458  00074C  6EDA               	movwf	fsr2h,c
  6459  00074E  50DF               	movf	indf2,w,c
  6460  000750  6E34               	movwf	(??_CMDledTask+1)^0,c
  6461  000752  2A33               	incf	??_CMDledTask^0,f,c
  6462  000754  EFAE  F003         	goto	u7054
  6463  000758                     u7055:
  6464  000758  90D8               	bcf	status,0,c
  6465  00075A  3234               	rrcf	(??_CMDledTask+1)^0,f,c
  6466  00075C                     u7054:
  6467  00075C  2E33               	decfsz	??_CMDledTask^0,f,c
  6468  00075E  EFAC  F003         	goto	u7055
  6469  000762  5034               	movf	(??_CMDledTask+1)^0,w,c
  6470  000764  0B01               	andlw	1
  6471  000766  6E37               	movwf	CMDledTask@bitStatus^0,c
  6472  000768                     
  6473                           ;the3.c: 1109:         PORTCbits.RC4 = bitStatus;
  6474  000768  B037               	btfsc	CMDledTask@bitStatus^0,0,c
  6475  00076A  D002               	bra	u7065
  6476  00076C  9882               	bcf	130,4,c	;volatile
  6477  00076E  D001               	bra	u7066
  6478  000770                     u7065:
  6479  000770  8882               	bsf	130,4,c	;volatile
  6480  000772                     u7066:
  6481                           
  6482                           ;the3.c: 1110:       }
  6483  000772  EFDD  F005         	goto	l4810
  6484  000776                     l4722:
  6485  000776  0438               	decf	CMDledTask@j^0,w,c
  6486  000778  1039               	iorwf	(CMDledTask@j+1)^0,w,c
  6487  00077A  A4D8               	btfss	status,2,c
  6488  00077C  EFC2  F003         	goto	u7071
  6489  000780  EFC4  F003         	goto	u7070
  6490  000784                     u7071:
  6491  000784  EFEC  F003         	goto	l4730
  6492  000788                     u7070:
  6493  000788  0E04               	movlw	4
  6494  00078A  1835               	xorwf	CMDledTask@i^0,w,c
  6495  00078C  1036               	iorwf	(CMDledTask@i+1)^0,w,c
  6496  00078E  A4D8               	btfss	status,2,c
  6497  000790  EFCC  F003         	goto	u7081
  6498  000794  EFCE  F003         	goto	u7080
  6499  000798                     u7081:
  6500  000798  EFEC  F003         	goto	l4730
  6501  00079C                     u7080:
  6502  00079C                     
  6503                           ;the3.c: 1112:       {;the3.c: 1113:         bitStatus = ((charmap[customNum][4] >> j) &
      +                           1);
  6504  00079C  C038  F033         	movff	CMDledTask@j,??_CMDledTask
  6505  0007A0  5020               	movf	_customNum^0,w,c
  6506  0007A2  0D08               	mullw	8
  6507  0007A4  0EBA               	movlw	low (_charmap+4)
  6508  0007A6  24F3               	addwf	243,w,c
  6509  0007A8  6ED9               	movwf	fsr2l,c
  6510  0007AA  0E00               	movlw	high (_charmap+4)
  6511  0007AC  20F4               	addwfc	prodh,w,c
  6512  0007AE  6EDA               	movwf	fsr2h,c
  6513  0007B0  50DF               	movf	indf2,w,c
  6514  0007B2  6E34               	movwf	(??_CMDledTask+1)^0,c
  6515  0007B4  2A33               	incf	??_CMDledTask^0,f,c
  6516  0007B6  EFDF  F003         	goto	u7094
  6517  0007BA                     u7095:
  6518  0007BA  90D8               	bcf	status,0,c
  6519  0007BC  3234               	rrcf	(??_CMDledTask+1)^0,f,c
  6520  0007BE                     u7094:
  6521  0007BE  2E33               	decfsz	??_CMDledTask^0,f,c
  6522  0007C0  EFDD  F003         	goto	u7095
  6523  0007C4  5034               	movf	(??_CMDledTask+1)^0,w,c
  6524  0007C6  0B01               	andlw	1
  6525  0007C8  6E37               	movwf	CMDledTask@bitStatus^0,c
  6526  0007CA                     
  6527                           ;the3.c: 1114:         PORTDbits.RD4 = bitStatus;
  6528  0007CA  B037               	btfsc	CMDledTask@bitStatus^0,0,c
  6529  0007CC  D002               	bra	u7105
  6530  0007CE  9883               	bcf	131,4,c	;volatile
  6531  0007D0  D001               	bra	u7106
  6532  0007D2                     u7105:
  6533  0007D2  8883               	bsf	131,4,c	;volatile
  6534  0007D4                     u7106:
  6535                           
  6536                           ;the3.c: 1115:       }
  6537  0007D4  EFDD  F005         	goto	l4810
  6538  0007D8                     l4730:
  6539  0007D8  0E04               	movlw	4
  6540  0007DA  1838               	xorwf	CMDledTask@j^0,w,c
  6541  0007DC  1039               	iorwf	(CMDledTask@j+1)^0,w,c
  6542  0007DE  A4D8               	btfss	status,2,c
  6543  0007E0  EFF4  F003         	goto	u7111
  6544  0007E4  EFF6  F003         	goto	u7110
  6545  0007E8                     u7111:
  6546  0007E8  EF1E  F004         	goto	l4738
  6547  0007EC                     u7110:
  6548  0007EC  0E05               	movlw	5
  6549  0007EE  1835               	xorwf	CMDledTask@i^0,w,c
  6550  0007F0  1036               	iorwf	(CMDledTask@i+1)^0,w,c
  6551  0007F2  A4D8               	btfss	status,2,c
  6552  0007F4  EFFE  F003         	goto	u7121
  6553  0007F8  EF00  F004         	goto	u7120
  6554  0007FC                     u7121:
  6555  0007FC  EF1E  F004         	goto	l4738
  6556  000800                     u7120:
  6557  000800                     
  6558                           ;the3.c: 1117:       {;the3.c: 1118:         bitStatus = ((charmap[customNum][5] >> j) &
      +                           1);
  6559  000800  C038  F033         	movff	CMDledTask@j,??_CMDledTask
  6560  000804  5020               	movf	_customNum^0,w,c
  6561  000806  0D08               	mullw	8
  6562  000808  0EBB               	movlw	low (_charmap+5)
  6563  00080A  24F3               	addwf	243,w,c
  6564  00080C  6ED9               	movwf	fsr2l,c
  6565  00080E  0E00               	movlw	high (_charmap+5)
  6566  000810  20F4               	addwfc	prodh,w,c
  6567  000812  6EDA               	movwf	fsr2h,c
  6568  000814  50DF               	movf	indf2,w,c
  6569  000816  6E34               	movwf	(??_CMDledTask+1)^0,c
  6570  000818  2A33               	incf	??_CMDledTask^0,f,c
  6571  00081A  EF11  F004         	goto	u7134
  6572  00081E                     u7135:
  6573  00081E  90D8               	bcf	status,0,c
  6574  000820  3234               	rrcf	(??_CMDledTask+1)^0,f,c
  6575  000822                     u7134:
  6576  000822  2E33               	decfsz	??_CMDledTask^0,f,c
  6577  000824  EF0F  F004         	goto	u7135
  6578  000828  5034               	movf	(??_CMDledTask+1)^0,w,c
  6579  00082A  0B01               	andlw	1
  6580  00082C  6E37               	movwf	CMDledTask@bitStatus^0,c
  6581  00082E                     
  6582                           ;the3.c: 1119:         PORTAbits.RA5 = bitStatus;
  6583  00082E  B037               	btfsc	CMDledTask@bitStatus^0,0,c
  6584  000830  D002               	bra	u7145
  6585  000832  9A80               	bcf	128,5,c	;volatile
  6586  000834  D001               	bra	u7146
  6587  000836                     u7145:
  6588  000836  8A80               	bsf	128,5,c	;volatile
  6589  000838                     u7146:
  6590                           
  6591                           ;the3.c: 1120:       }
  6592  000838  EFDD  F005         	goto	l4810
  6593  00083C                     l4738:
  6594  00083C  0E03               	movlw	3
  6595  00083E  1838               	xorwf	CMDledTask@j^0,w,c
  6596  000840  1039               	iorwf	(CMDledTask@j+1)^0,w,c
  6597  000842  A4D8               	btfss	status,2,c
  6598  000844  EF26  F004         	goto	u7151
  6599  000848  EF28  F004         	goto	u7150
  6600  00084C                     u7151:
  6601  00084C  EF50  F004         	goto	l4746
  6602  000850                     u7150:
  6603  000850  0E05               	movlw	5
  6604  000852  1835               	xorwf	CMDledTask@i^0,w,c
  6605  000854  1036               	iorwf	(CMDledTask@i+1)^0,w,c
  6606  000856  A4D8               	btfss	status,2,c
  6607  000858  EF30  F004         	goto	u7161
  6608  00085C  EF32  F004         	goto	u7160
  6609  000860                     u7161:
  6610  000860  EF50  F004         	goto	l4746
  6611  000864                     u7160:
  6612  000864                     
  6613                           ;the3.c: 1122:       {;the3.c: 1123:         bitStatus = ((charmap[customNum][5] >> j) &
      +                           1);
  6614  000864  C038  F033         	movff	CMDledTask@j,??_CMDledTask
  6615  000868  5020               	movf	_customNum^0,w,c
  6616  00086A  0D08               	mullw	8
  6617  00086C  0EBB               	movlw	low (_charmap+5)
  6618  00086E  24F3               	addwf	243,w,c
  6619  000870  6ED9               	movwf	fsr2l,c
  6620  000872  0E00               	movlw	high (_charmap+5)
  6621  000874  20F4               	addwfc	prodh,w,c
  6622  000876  6EDA               	movwf	fsr2h,c
  6623  000878  50DF               	movf	indf2,w,c
  6624  00087A  6E34               	movwf	(??_CMDledTask+1)^0,c
  6625  00087C  2A33               	incf	??_CMDledTask^0,f,c
  6626  00087E  EF43  F004         	goto	u7174
  6627  000882                     u7175:
  6628  000882  90D8               	bcf	status,0,c
  6629  000884  3234               	rrcf	(??_CMDledTask+1)^0,f,c
  6630  000886                     u7174:
  6631  000886  2E33               	decfsz	??_CMDledTask^0,f,c
  6632  000888  EF41  F004         	goto	u7175
  6633  00088C  5034               	movf	(??_CMDledTask+1)^0,w,c
  6634  00088E  0B01               	andlw	1
  6635  000890  6E37               	movwf	CMDledTask@bitStatus^0,c
  6636  000892                     
  6637                           ;the3.c: 1124:         PORTBbits.RB5 = bitStatus;
  6638  000892  B037               	btfsc	CMDledTask@bitStatus^0,0,c
  6639  000894  D002               	bra	u7185
  6640  000896  9A81               	bcf	129,5,c	;volatile
  6641  000898  D001               	bra	u7186
  6642  00089A                     u7185:
  6643  00089A  8A81               	bsf	129,5,c	;volatile
  6644  00089C                     u7186:
  6645                           
  6646                           ;the3.c: 1125:       }
  6647  00089C  EFDD  F005         	goto	l4810
  6648  0008A0                     l4746:
  6649  0008A0  0E02               	movlw	2
  6650  0008A2  1838               	xorwf	CMDledTask@j^0,w,c
  6651  0008A4  1039               	iorwf	(CMDledTask@j+1)^0,w,c
  6652  0008A6  A4D8               	btfss	status,2,c
  6653  0008A8  EF58  F004         	goto	u7191
  6654  0008AC  EF5A  F004         	goto	u7190
  6655  0008B0                     u7191:
  6656  0008B0  EF82  F004         	goto	l4754
  6657  0008B4                     u7190:
  6658  0008B4  0E05               	movlw	5
  6659  0008B6  1835               	xorwf	CMDledTask@i^0,w,c
  6660  0008B8  1036               	iorwf	(CMDledTask@i+1)^0,w,c
  6661  0008BA  A4D8               	btfss	status,2,c
  6662  0008BC  EF62  F004         	goto	u7201
  6663  0008C0  EF64  F004         	goto	u7200
  6664  0008C4                     u7201:
  6665  0008C4  EF82  F004         	goto	l4754
  6666  0008C8                     u7200:
  6667  0008C8                     
  6668                           ;the3.c: 1127:       {;the3.c: 1128:         bitStatus = ((charmap[customNum][5] >> j) &
      +                           1);
  6669  0008C8  C038  F033         	movff	CMDledTask@j,??_CMDledTask
  6670  0008CC  5020               	movf	_customNum^0,w,c
  6671  0008CE  0D08               	mullw	8
  6672  0008D0  0EBB               	movlw	low (_charmap+5)
  6673  0008D2  24F3               	addwf	243,w,c
  6674  0008D4  6ED9               	movwf	fsr2l,c
  6675  0008D6  0E00               	movlw	high (_charmap+5)
  6676  0008D8  20F4               	addwfc	prodh,w,c
  6677  0008DA  6EDA               	movwf	fsr2h,c
  6678  0008DC  50DF               	movf	indf2,w,c
  6679  0008DE  6E34               	movwf	(??_CMDledTask+1)^0,c
  6680  0008E0  2A33               	incf	??_CMDledTask^0,f,c
  6681  0008E2  EF75  F004         	goto	u7214
  6682  0008E6                     u7215:
  6683  0008E6  90D8               	bcf	status,0,c
  6684  0008E8  3234               	rrcf	(??_CMDledTask+1)^0,f,c
  6685  0008EA                     u7214:
  6686  0008EA  2E33               	decfsz	??_CMDledTask^0,f,c
  6687  0008EC  EF73  F004         	goto	u7215
  6688  0008F0  5034               	movf	(??_CMDledTask+1)^0,w,c
  6689  0008F2  0B01               	andlw	1
  6690  0008F4  6E37               	movwf	CMDledTask@bitStatus^0,c
  6691  0008F6                     
  6692                           ;the3.c: 1129:         PORTCbits.RC5 = bitStatus;
  6693  0008F6  B037               	btfsc	CMDledTask@bitStatus^0,0,c
  6694  0008F8  D002               	bra	u7225
  6695  0008FA  9A82               	bcf	130,5,c	;volatile
  6696  0008FC  D001               	bra	u7226
  6697  0008FE                     u7225:
  6698  0008FE  8A82               	bsf	130,5,c	;volatile
  6699  000900                     u7226:
  6700                           
  6701                           ;the3.c: 1130:       }
  6702  000900  EFDD  F005         	goto	l4810
  6703  000904                     l4754:
  6704  000904  0438               	decf	CMDledTask@j^0,w,c
  6705  000906  1039               	iorwf	(CMDledTask@j+1)^0,w,c
  6706  000908  A4D8               	btfss	status,2,c
  6707  00090A  EF89  F004         	goto	u7231
  6708  00090E  EF8B  F004         	goto	u7230
  6709  000912                     u7231:
  6710  000912  EFB3  F004         	goto	l4762
  6711  000916                     u7230:
  6712  000916  0E05               	movlw	5
  6713  000918  1835               	xorwf	CMDledTask@i^0,w,c
  6714  00091A  1036               	iorwf	(CMDledTask@i+1)^0,w,c
  6715  00091C  A4D8               	btfss	status,2,c
  6716  00091E  EF93  F004         	goto	u7241
  6717  000922  EF95  F004         	goto	u7240
  6718  000926                     u7241:
  6719  000926  EFB3  F004         	goto	l4762
  6720  00092A                     u7240:
  6721  00092A                     
  6722                           ;the3.c: 1132:       {;the3.c: 1133:         bitStatus = ((charmap[customNum][5] >> j) &
      +                           1);
  6723  00092A  C038  F033         	movff	CMDledTask@j,??_CMDledTask
  6724  00092E  5020               	movf	_customNum^0,w,c
  6725  000930  0D08               	mullw	8
  6726  000932  0EBB               	movlw	low (_charmap+5)
  6727  000934  24F3               	addwf	243,w,c
  6728  000936  6ED9               	movwf	fsr2l,c
  6729  000938  0E00               	movlw	high (_charmap+5)
  6730  00093A  20F4               	addwfc	prodh,w,c
  6731  00093C  6EDA               	movwf	fsr2h,c
  6732  00093E  50DF               	movf	indf2,w,c
  6733  000940  6E34               	movwf	(??_CMDledTask+1)^0,c
  6734  000942  2A33               	incf	??_CMDledTask^0,f,c
  6735  000944  EFA6  F004         	goto	u7254
  6736  000948                     u7255:
  6737  000948  90D8               	bcf	status,0,c
  6738  00094A  3234               	rrcf	(??_CMDledTask+1)^0,f,c
  6739  00094C                     u7254:
  6740  00094C  2E33               	decfsz	??_CMDledTask^0,f,c
  6741  00094E  EFA4  F004         	goto	u7255
  6742  000952  5034               	movf	(??_CMDledTask+1)^0,w,c
  6743  000954  0B01               	andlw	1
  6744  000956  6E37               	movwf	CMDledTask@bitStatus^0,c
  6745  000958                     
  6746                           ;the3.c: 1134:         PORTDbits.RD5 = bitStatus;
  6747  000958  B037               	btfsc	CMDledTask@bitStatus^0,0,c
  6748  00095A  D002               	bra	u7265
  6749  00095C  9A83               	bcf	131,5,c	;volatile
  6750  00095E  D001               	bra	u7266
  6751  000960                     u7265:
  6752  000960  8A83               	bsf	131,5,c	;volatile
  6753  000962                     u7266:
  6754                           
  6755                           ;the3.c: 1135:       }
  6756  000962  EFDD  F005         	goto	l4810
  6757  000966                     l4762:
  6758  000966  0E03               	movlw	3
  6759  000968  1838               	xorwf	CMDledTask@j^0,w,c
  6760  00096A  1039               	iorwf	(CMDledTask@j+1)^0,w,c
  6761  00096C  A4D8               	btfss	status,2,c
  6762  00096E  EFBB  F004         	goto	u7271
  6763  000972  EFBD  F004         	goto	u7270
  6764  000976                     u7271:
  6765  000976  EFE5  F004         	goto	l4770
  6766  00097A                     u7270:
  6767  00097A  0E06               	movlw	6
  6768  00097C  1835               	xorwf	CMDledTask@i^0,w,c
  6769  00097E  1036               	iorwf	(CMDledTask@i+1)^0,w,c
  6770  000980  A4D8               	btfss	status,2,c
  6771  000982  EFC5  F004         	goto	u7281
  6772  000986  EFC7  F004         	goto	u7280
  6773  00098A                     u7281:
  6774  00098A  EFE5  F004         	goto	l4770
  6775  00098E                     u7280:
  6776  00098E                     
  6777                           ;the3.c: 1137:       {;the3.c: 1138:         bitStatus = ((charmap[customNum][6] >> j) &
      +                           1);
  6778  00098E  C038  F033         	movff	CMDledTask@j,??_CMDledTask
  6779  000992  5020               	movf	_customNum^0,w,c
  6780  000994  0D08               	mullw	8
  6781  000996  0EBC               	movlw	low (_charmap+6)
  6782  000998  24F3               	addwf	243,w,c
  6783  00099A  6ED9               	movwf	fsr2l,c
  6784  00099C  0E00               	movlw	high (_charmap+6)
  6785  00099E  20F4               	addwfc	prodh,w,c
  6786  0009A0  6EDA               	movwf	fsr2h,c
  6787  0009A2  50DF               	movf	indf2,w,c
  6788  0009A4  6E34               	movwf	(??_CMDledTask+1)^0,c
  6789  0009A6  2A33               	incf	??_CMDledTask^0,f,c
  6790  0009A8  EFD8  F004         	goto	u7294
  6791  0009AC                     u7295:
  6792  0009AC  90D8               	bcf	status,0,c
  6793  0009AE  3234               	rrcf	(??_CMDledTask+1)^0,f,c
  6794  0009B0                     u7294:
  6795  0009B0  2E33               	decfsz	??_CMDledTask^0,f,c
  6796  0009B2  EFD6  F004         	goto	u7295
  6797  0009B6  5034               	movf	(??_CMDledTask+1)^0,w,c
  6798  0009B8  0B01               	andlw	1
  6799  0009BA  6E37               	movwf	CMDledTask@bitStatus^0,c
  6800  0009BC                     
  6801                           ;the3.c: 1139:         PORTBbits.RB6 = bitStatus;
  6802  0009BC  B037               	btfsc	CMDledTask@bitStatus^0,0,c
  6803  0009BE  D002               	bra	u7305
  6804  0009C0  9C81               	bcf	129,6,c	;volatile
  6805  0009C2  D001               	bra	u7306
  6806  0009C4                     u7305:
  6807  0009C4  8C81               	bsf	129,6,c	;volatile
  6808  0009C6                     u7306:
  6809                           
  6810                           ;the3.c: 1140:       }
  6811  0009C6  EFDD  F005         	goto	l4810
  6812  0009CA                     l4770:
  6813  0009CA  0E02               	movlw	2
  6814  0009CC  1838               	xorwf	CMDledTask@j^0,w,c
  6815  0009CE  1039               	iorwf	(CMDledTask@j+1)^0,w,c
  6816  0009D0  A4D8               	btfss	status,2,c
  6817  0009D2  EFED  F004         	goto	u7311
  6818  0009D6  EFEF  F004         	goto	u7310
  6819  0009DA                     u7311:
  6820  0009DA  EF17  F005         	goto	l4778
  6821  0009DE                     u7310:
  6822  0009DE  0E06               	movlw	6
  6823  0009E0  1835               	xorwf	CMDledTask@i^0,w,c
  6824  0009E2  1036               	iorwf	(CMDledTask@i+1)^0,w,c
  6825  0009E4  A4D8               	btfss	status,2,c
  6826  0009E6  EFF7  F004         	goto	u7321
  6827  0009EA  EFF9  F004         	goto	u7320
  6828  0009EE                     u7321:
  6829  0009EE  EF17  F005         	goto	l4778
  6830  0009F2                     u7320:
  6831  0009F2                     
  6832                           ;the3.c: 1142:       {;the3.c: 1143:         bitStatus = ((charmap[customNum][6] >> j) &
      +                           1);
  6833  0009F2  C038  F033         	movff	CMDledTask@j,??_CMDledTask
  6834  0009F6  5020               	movf	_customNum^0,w,c
  6835  0009F8  0D08               	mullw	8
  6836  0009FA  0EBC               	movlw	low (_charmap+6)
  6837  0009FC  24F3               	addwf	243,w,c
  6838  0009FE  6ED9               	movwf	fsr2l,c
  6839  000A00  0E00               	movlw	high (_charmap+6)
  6840  000A02  20F4               	addwfc	prodh,w,c
  6841  000A04  6EDA               	movwf	fsr2h,c
  6842  000A06  50DF               	movf	indf2,w,c
  6843  000A08  6E34               	movwf	(??_CMDledTask+1)^0,c
  6844  000A0A  2A33               	incf	??_CMDledTask^0,f,c
  6845  000A0C  EF0A  F005         	goto	u7334
  6846  000A10                     u7335:
  6847  000A10  90D8               	bcf	status,0,c
  6848  000A12  3234               	rrcf	(??_CMDledTask+1)^0,f,c
  6849  000A14                     u7334:
  6850  000A14  2E33               	decfsz	??_CMDledTask^0,f,c
  6851  000A16  EF08  F005         	goto	u7335
  6852  000A1A  5034               	movf	(??_CMDledTask+1)^0,w,c
  6853  000A1C  0B01               	andlw	1
  6854  000A1E  6E37               	movwf	CMDledTask@bitStatus^0,c
  6855  000A20                     
  6856                           ;the3.c: 1144:         PORTCbits.RC6 = bitStatus;
  6857  000A20  B037               	btfsc	CMDledTask@bitStatus^0,0,c
  6858  000A22  D002               	bra	u7345
  6859  000A24  9C82               	bcf	130,6,c	;volatile
  6860  000A26  D001               	bra	u7346
  6861  000A28                     u7345:
  6862  000A28  8C82               	bsf	130,6,c	;volatile
  6863  000A2A                     u7346:
  6864                           
  6865                           ;the3.c: 1145:       }
  6866  000A2A  EFDD  F005         	goto	l4810
  6867  000A2E                     l4778:
  6868  000A2E  0438               	decf	CMDledTask@j^0,w,c
  6869  000A30  1039               	iorwf	(CMDledTask@j+1)^0,w,c
  6870  000A32  A4D8               	btfss	status,2,c
  6871  000A34  EF1E  F005         	goto	u7351
  6872  000A38  EF20  F005         	goto	u7350
  6873  000A3C                     u7351:
  6874  000A3C  EF48  F005         	goto	l4786
  6875  000A40                     u7350:
  6876  000A40  0E06               	movlw	6
  6877  000A42  1835               	xorwf	CMDledTask@i^0,w,c
  6878  000A44  1036               	iorwf	(CMDledTask@i+1)^0,w,c
  6879  000A46  A4D8               	btfss	status,2,c
  6880  000A48  EF28  F005         	goto	u7361
  6881  000A4C  EF2A  F005         	goto	u7360
  6882  000A50                     u7361:
  6883  000A50  EF48  F005         	goto	l4786
  6884  000A54                     u7360:
  6885  000A54                     
  6886                           ;the3.c: 1147:       {;the3.c: 1148:         bitStatus = ((charmap[customNum][6] >> j) &
      +                           1);
  6887  000A54  C038  F033         	movff	CMDledTask@j,??_CMDledTask
  6888  000A58  5020               	movf	_customNum^0,w,c
  6889  000A5A  0D08               	mullw	8
  6890  000A5C  0EBC               	movlw	low (_charmap+6)
  6891  000A5E  24F3               	addwf	243,w,c
  6892  000A60  6ED9               	movwf	fsr2l,c
  6893  000A62  0E00               	movlw	high (_charmap+6)
  6894  000A64  20F4               	addwfc	prodh,w,c
  6895  000A66  6EDA               	movwf	fsr2h,c
  6896  000A68  50DF               	movf	indf2,w,c
  6897  000A6A  6E34               	movwf	(??_CMDledTask+1)^0,c
  6898  000A6C  2A33               	incf	??_CMDledTask^0,f,c
  6899  000A6E  EF3B  F005         	goto	u7374
  6900  000A72                     u7375:
  6901  000A72  90D8               	bcf	status,0,c
  6902  000A74  3234               	rrcf	(??_CMDledTask+1)^0,f,c
  6903  000A76                     u7374:
  6904  000A76  2E33               	decfsz	??_CMDledTask^0,f,c
  6905  000A78  EF39  F005         	goto	u7375
  6906  000A7C  5034               	movf	(??_CMDledTask+1)^0,w,c
  6907  000A7E  0B01               	andlw	1
  6908  000A80  6E37               	movwf	CMDledTask@bitStatus^0,c
  6909  000A82                     
  6910                           ;the3.c: 1149:         PORTDbits.RD6 = bitStatus;
  6911  000A82  B037               	btfsc	CMDledTask@bitStatus^0,0,c
  6912  000A84  D002               	bra	u7385
  6913  000A86  9C83               	bcf	131,6,c	;volatile
  6914  000A88  D001               	bra	u7386
  6915  000A8A                     u7385:
  6916  000A8A  8C83               	bsf	131,6,c	;volatile
  6917  000A8C                     u7386:
  6918                           
  6919                           ;the3.c: 1150:       }
  6920  000A8C  EFDD  F005         	goto	l4810
  6921  000A90                     l4786:
  6922  000A90  0E03               	movlw	3
  6923  000A92  1838               	xorwf	CMDledTask@j^0,w,c
  6924  000A94  1039               	iorwf	(CMDledTask@j+1)^0,w,c
  6925  000A96  A4D8               	btfss	status,2,c
  6926  000A98  EF50  F005         	goto	u7391
  6927  000A9C  EF52  F005         	goto	u7390
  6928  000AA0                     u7391:
  6929  000AA0  EF7A  F005         	goto	l4794
  6930  000AA4                     u7390:
  6931  000AA4  0E07               	movlw	7
  6932  000AA6  1835               	xorwf	CMDledTask@i^0,w,c
  6933  000AA8  1036               	iorwf	(CMDledTask@i+1)^0,w,c
  6934  000AAA  A4D8               	btfss	status,2,c
  6935  000AAC  EF5A  F005         	goto	u7401
  6936  000AB0  EF5C  F005         	goto	u7400
  6937  000AB4                     u7401:
  6938  000AB4  EF7A  F005         	goto	l4794
  6939  000AB8                     u7400:
  6940  000AB8                     
  6941                           ;the3.c: 1152:       {;the3.c: 1153:         bitStatus = ((charmap[customNum][7] >> j) &
      +                           1);
  6942  000AB8  C038  F033         	movff	CMDledTask@j,??_CMDledTask
  6943  000ABC  5020               	movf	_customNum^0,w,c
  6944  000ABE  0D08               	mullw	8
  6945  000AC0  0EBD               	movlw	low (_charmap+7)
  6946  000AC2  24F3               	addwf	243,w,c
  6947  000AC4  6ED9               	movwf	fsr2l,c
  6948  000AC6  0E00               	movlw	high (_charmap+7)
  6949  000AC8  20F4               	addwfc	prodh,w,c
  6950  000ACA  6EDA               	movwf	fsr2h,c
  6951  000ACC  50DF               	movf	indf2,w,c
  6952  000ACE  6E34               	movwf	(??_CMDledTask+1)^0,c
  6953  000AD0  2A33               	incf	??_CMDledTask^0,f,c
  6954  000AD2  EF6D  F005         	goto	u7414
  6955  000AD6                     u7415:
  6956  000AD6  90D8               	bcf	status,0,c
  6957  000AD8  3234               	rrcf	(??_CMDledTask+1)^0,f,c
  6958  000ADA                     u7414:
  6959  000ADA  2E33               	decfsz	??_CMDledTask^0,f,c
  6960  000ADC  EF6B  F005         	goto	u7415
  6961  000AE0  5034               	movf	(??_CMDledTask+1)^0,w,c
  6962  000AE2  0B01               	andlw	1
  6963  000AE4  6E37               	movwf	CMDledTask@bitStatus^0,c
  6964  000AE6                     
  6965                           ;the3.c: 1154:         PORTBbits.RB7 = bitStatus;
  6966  000AE6  B037               	btfsc	CMDledTask@bitStatus^0,0,c
  6967  000AE8  D002               	bra	u7425
  6968  000AEA  9E81               	bcf	129,7,c	;volatile
  6969  000AEC  D001               	bra	u7426
  6970  000AEE                     u7425:
  6971  000AEE  8E81               	bsf	129,7,c	;volatile
  6972  000AF0                     u7426:
  6973                           
  6974                           ;the3.c: 1155:       }
  6975  000AF0  EFDD  F005         	goto	l4810
  6976  000AF4                     l4794:
  6977  000AF4  0E02               	movlw	2
  6978  000AF6  1838               	xorwf	CMDledTask@j^0,w,c
  6979  000AF8  1039               	iorwf	(CMDledTask@j+1)^0,w,c
  6980  000AFA  A4D8               	btfss	status,2,c
  6981  000AFC  EF82  F005         	goto	u7431
  6982  000B00  EF84  F005         	goto	u7430
  6983  000B04                     u7431:
  6984  000B04  EFAC  F005         	goto	l4802
  6985  000B08                     u7430:
  6986  000B08  0E07               	movlw	7
  6987  000B0A  1835               	xorwf	CMDledTask@i^0,w,c
  6988  000B0C  1036               	iorwf	(CMDledTask@i+1)^0,w,c
  6989  000B0E  A4D8               	btfss	status,2,c
  6990  000B10  EF8C  F005         	goto	u7441
  6991  000B14  EF8E  F005         	goto	u7440
  6992  000B18                     u7441:
  6993  000B18  EFAC  F005         	goto	l4802
  6994  000B1C                     u7440:
  6995  000B1C                     
  6996                           ;the3.c: 1157:       {;the3.c: 1158:         bitStatus = ((charmap[customNum][7] >> j) &
      +                           1);
  6997  000B1C  C038  F033         	movff	CMDledTask@j,??_CMDledTask
  6998  000B20  5020               	movf	_customNum^0,w,c
  6999  000B22  0D08               	mullw	8
  7000  000B24  0EBD               	movlw	low (_charmap+7)
  7001  000B26  24F3               	addwf	243,w,c
  7002  000B28  6ED9               	movwf	fsr2l,c
  7003  000B2A  0E00               	movlw	high (_charmap+7)
  7004  000B2C  20F4               	addwfc	prodh,w,c
  7005  000B2E  6EDA               	movwf	fsr2h,c
  7006  000B30  50DF               	movf	indf2,w,c
  7007  000B32  6E34               	movwf	(??_CMDledTask+1)^0,c
  7008  000B34  2A33               	incf	??_CMDledTask^0,f,c
  7009  000B36  EF9F  F005         	goto	u7454
  7010  000B3A                     u7455:
  7011  000B3A  90D8               	bcf	status,0,c
  7012  000B3C  3234               	rrcf	(??_CMDledTask+1)^0,f,c
  7013  000B3E                     u7454:
  7014  000B3E  2E33               	decfsz	??_CMDledTask^0,f,c
  7015  000B40  EF9D  F005         	goto	u7455
  7016  000B44  5034               	movf	(??_CMDledTask+1)^0,w,c
  7017  000B46  0B01               	andlw	1
  7018  000B48  6E37               	movwf	CMDledTask@bitStatus^0,c
  7019  000B4A                     
  7020                           ;the3.c: 1159:         PORTCbits.RC7 = bitStatus;
  7021  000B4A  B037               	btfsc	CMDledTask@bitStatus^0,0,c
  7022  000B4C  D002               	bra	u7465
  7023  000B4E  9E82               	bcf	130,7,c	;volatile
  7024  000B50  D001               	bra	u7466
  7025  000B52                     u7465:
  7026  000B52  8E82               	bsf	130,7,c	;volatile
  7027  000B54                     u7466:
  7028                           
  7029                           ;the3.c: 1160:       }
  7030  000B54  EFDD  F005         	goto	l4810
  7031  000B58                     l4802:
  7032  000B58  0438               	decf	CMDledTask@j^0,w,c
  7033  000B5A  1039               	iorwf	(CMDledTask@j+1)^0,w,c
  7034  000B5C  A4D8               	btfss	status,2,c
  7035  000B5E  EFB3  F005         	goto	u7471
  7036  000B62  EFB5  F005         	goto	u7470
  7037  000B66                     u7471:
  7038  000B66  EFDD  F005         	goto	l583
  7039  000B6A                     u7470:
  7040  000B6A  0E07               	movlw	7
  7041  000B6C  1835               	xorwf	CMDledTask@i^0,w,c
  7042  000B6E  1036               	iorwf	(CMDledTask@i+1)^0,w,c
  7043  000B70  A4D8               	btfss	status,2,c
  7044  000B72  EFBD  F005         	goto	u7481
  7045  000B76  EFBF  F005         	goto	u7480
  7046  000B7A                     u7481:
  7047  000B7A  EFDD  F005         	goto	l583
  7048  000B7E                     u7480:
  7049  000B7E                     
  7050                           ;the3.c: 1162:       {;the3.c: 1163:         bitStatus = ((charmap[customNum][7] >> j) &
      +                           1);
  7051  000B7E  C038  F033         	movff	CMDledTask@j,??_CMDledTask
  7052  000B82  5020               	movf	_customNum^0,w,c
  7053  000B84  0D08               	mullw	8
  7054  000B86  0EBD               	movlw	low (_charmap+7)
  7055  000B88  24F3               	addwf	243,w,c
  7056  000B8A  6ED9               	movwf	fsr2l,c
  7057  000B8C  0E00               	movlw	high (_charmap+7)
  7058  000B8E  20F4               	addwfc	prodh,w,c
  7059  000B90  6EDA               	movwf	fsr2h,c
  7060  000B92  50DF               	movf	indf2,w,c
  7061  000B94  6E34               	movwf	(??_CMDledTask+1)^0,c
  7062  000B96  2A33               	incf	??_CMDledTask^0,f,c
  7063  000B98  EFD0  F005         	goto	u7494
  7064  000B9C                     u7495:
  7065  000B9C  90D8               	bcf	status,0,c
  7066  000B9E  3234               	rrcf	(??_CMDledTask+1)^0,f,c
  7067  000BA0                     u7494:
  7068  000BA0  2E33               	decfsz	??_CMDledTask^0,f,c
  7069  000BA2  EFCE  F005         	goto	u7495
  7070  000BA6  5034               	movf	(??_CMDledTask+1)^0,w,c
  7071  000BA8  0B01               	andlw	1
  7072  000BAA  6E37               	movwf	CMDledTask@bitStatus^0,c
  7073  000BAC                     
  7074                           ;the3.c: 1164:         PORTDbits.RD7 = bitStatus;
  7075  000BAC  B037               	btfsc	CMDledTask@bitStatus^0,0,c
  7076  000BAE  D002               	bra	u7505
  7077  000BB0  9E83               	bcf	131,7,c	;volatile
  7078  000BB2  D001               	bra	u7506
  7079  000BB4                     u7505:
  7080  000BB4  8E83               	bsf	131,7,c	;volatile
  7081  000BB6                     u7506:
  7082  000BB6  EFDD  F005         	goto	l4810
  7083  000BBA                     l583:
  7084  000BBA                     l4810:
  7085                           
  7086                           ;the3.c: 1166:     }
  7087  000BBA  0638               	decf	CMDledTask@j^0,f,c
  7088  000BBC  A0D8               	btfss	status,0,c
  7089  000BBE  0639               	decf	(CMDledTask@j+1)^0,f,c
  7090  000BC0  BE39               	btfsc	(CMDledTask@j+1)^0,7,c
  7091  000BC2  EFED  F005         	goto	u7510
  7092  000BC6  5039               	movf	(CMDledTask@j+1)^0,w,c
  7093  000BC8  E106               	bnz	u7511
  7094  000BCA  0438               	decf	CMDledTask@j^0,w,c
  7095  000BCC  B0D8               	btfsc	status,0,c
  7096  000BCE  EFEB  F005         	goto	u7511
  7097  000BD2  EFED  F005         	goto	u7510
  7098  000BD6                     u7511:
  7099  000BD6  EF11  F000         	goto	l4570
  7100  000BDA                     u7510:
  7101  000BDA                     
  7102                           ;the3.c: 1168:   }
  7103  000BDA  4A35               	infsnz	CMDledTask@i^0,f,c
  7104  000BDC  2A36               	incf	(CMDledTask@i+1)^0,f,c
  7105  000BDE  BE36               	btfsc	(CMDledTask@i+1)^0,7,c
  7106  000BE0  EFFB  F005         	goto	u7521
  7107  000BE4  5036               	movf	(CMDledTask@i+1)^0,w,c
  7108  000BE6  E109               	bnz	u7520
  7109  000BE8  0E08               	movlw	8
  7110  000BEA  5C35               	subwf	CMDledTask@i^0,w,c
  7111  000BEC  A0D8               	btfss	status,0,c
  7112  000BEE  EFFB  F005         	goto	u7521
  7113  000BF2  EFFD  F005         	goto	u7520
  7114  000BF6                     u7521:
  7115  000BF6  EF0D  F000         	goto	l4564
  7116  000BFA                     u7520:
  7117  000BFA  0012               	return		;funcret
  7118  000BFC                     __end_of_CMDledTask:
  7119                           	callstack 0
  7120                           
  7121 ;; *************** function _isr *****************
  7122 ;; Defined at:
  7123 ;;		line 170 in file "the3.c"
  7124 ;; Parameters:    Size  Location     Type
  7125 ;;		None
  7126 ;; Auto vars:     Size  Location     Type
  7127 ;;		None
  7128 ;; Return value:  Size  Location     Type
  7129 ;;                  1    wreg      void 
  7130 ;; Registers used:
  7131 ;;		wreg, status,2, status,0, cstack
  7132 ;; Tracked objects:
  7133 ;;		On entry : 0/0
  7134 ;;		On exit  : 0/0
  7135 ;;		Unchanged: 0/0
  7136 ;; Data sizes:     COMRAM   BANK0   BANK1   BANK2   BANK3   BANK4   BANK5   BANK6   BANK7   BANK8   BANK9  BANK10  BANK1
      +1  BANK12  BANK13  BANK14  BANK15
  7137 ;;      Params:         0       0       0       0       0       0       0       0       0       0       0       0       
      +0       0       0       0       0
  7138 ;;      Locals:         0       0       0       0       0       0       0       0       0       0       0       0       
      +0       0       0       0       0
  7139 ;;      Temps:          2       0       0       0       0       0       0       0       0       0       0       0       
      +0       0       0       0       0
  7140 ;;      Totals:         2       0       0       0       0       0       0       0       0       0       0       0       
      +0       0       0       0       0
  7141 ;;Total ram usage:        2 bytes
  7142 ;; Hardware stack levels used:    1
  7143 ;; Hardware stack levels required when called:    3
  7144 ;; This function calls:
  7145 ;;		_ADCtoLCD
  7146 ;;		___awmod
  7147 ;;		_set_custom_num_seven_segment
  7148 ;;		_set_xCoord_seven_segment
  7149 ;;		_set_yCoord_seven_segment
  7150 ;; This function is called by:
  7151 ;;		Interrupt level 2
  7152 ;; This function uses a non-reentrant model
  7153 ;;
  7154                           
  7155                           	psect	intcode
  7156  000008                     __pintcode:
  7157                           	callstack 0
  7158  000008                     _isr:
  7159                           	callstack 22
  7160                           
  7161                           ;incstack = 0
  7162  000008  8250               	bsf	int$flags,1,c	;set compiler interrupt flag (level 2)
  7163  00000A  EDB6  F00F         	call	int_func,f	;refresh shadow registers
  7164                           
  7165                           	psect	intcode_body
  7166  001F6C                     __pintcode_body:
  7167                           	callstack 22
  7168  001F6C                     int_func:
  7169                           	callstack 22
  7170  001F6C  0006               	pop		; remove dummy address from shadow register refresh
  7171  001F6E                     
  7172                           ;the3.c: 172:   interruptCountTMR0++;
  7173  001F6E  4A19               	infsnz	_interruptCountTMR0^0,f,c
  7174  001F70  2A1A               	incf	(_interruptCountTMR0+1)^0,f,c
  7175  001F72                     
  7176                           ;the3.c: 173:   INTCONbits.T0IF = 0;
  7177  001F72  94F2               	bcf	242,2,c	;volatile
  7178  001F74                     
  7179                           ;the3.c: 174:   TMR0 = 217;
  7180  001F74  0E00               	movlw	0
  7181  001F76  6ED7               	movwf	215,c	;volatile
  7182  001F78  0ED9               	movlw	217
  7183  001F7A  6ED6               	movwf	214,c	;volatile
  7184  001F7C                     
  7185                           ;the3.c: 175:   if (interruptCountTMR0 == 500)
  7186  001F7C  0EF4               	movlw	244
  7187  001F7E  1819               	xorwf	_interruptCountTMR0^0,w,c
  7188  001F80  E106               	bnz	i2u561_41
  7189  001F82  041A               	decf	(_interruptCountTMR0+1)^0,w,c
  7190  001F84  A4D8               	btfss	status,2,c
  7191  001F86  EFC7  F00F         	goto	i2u561_41
  7192  001F8A  EFC9  F00F         	goto	i2u561_40
  7193  001F8E                     i2u561_41:
  7194  001F8E  EFCF  F00F         	goto	i2l4052
  7195  001F92                     i2u561_40:
  7196  001F92                     
  7197                           ;the3.c: 176:   {;the3.c: 177:     ms500WaitedFlag = 1;
  7198  001F92  0E01               	movlw	1
  7199  001F94  6E1C               	movwf	_ms500WaitedFlag^0,c
  7200                           
  7201                           ;the3.c: 178:     interruptCountTMR0 = 0;
  7202  001F96  0E00               	movlw	0
  7203  001F98  6E1A               	movwf	(_interruptCountTMR0+1)^0,c
  7204  001F9A  0E00               	movlw	0
  7205  001F9C  6E19               	movwf	_interruptCountTMR0^0,c
  7206  001F9E                     i2l4052:
  7207                           
  7208                           ;the3.c: 180:   if (interruptCountTMR0 == 30)
  7209  001F9E  0E1E               	movlw	30
  7210  001FA0  1819               	xorwf	_interruptCountTMR0^0,w,c
  7211  001FA2  101A               	iorwf	(_interruptCountTMR0+1)^0,w,c
  7212  001FA4  A4D8               	btfss	status,2,c
  7213  001FA6  EFD7  F00F         	goto	i2u562_41
  7214  001FAA  EFD9  F00F         	goto	i2u562_40
  7215  001FAE                     i2u562_41:
  7216  001FAE  EFDB  F00F         	goto	i2l4056
  7217  001FB2                     i2u562_40:
  7218  001FB2                     
  7219                           ;the3.c: 181:   {;the3.c: 182:     ms30WaitedFlag = 1;
  7220  001FB2  0E01               	movlw	1
  7221  001FB4  6E1B               	movwf	_ms30WaitedFlag^0,c
  7222  001FB6                     i2l4056:
  7223                           
  7224                           ;the3.c: 184:   if (ADIF && mode == 0)
  7225  001FB6  AC9E               	btfss	3998,6,c	;volatile
  7226  001FB8  EFE0  F00F         	goto	i2u563_41
  7227  001FBC  EFE2  F00F         	goto	i2u563_40
  7228  001FC0                     i2u563_41:
  7229  001FC0  EFFB  F00F         	goto	i2l4066
  7230  001FC4                     i2u563_40:
  7231  001FC4  500B               	movf	_mode^0,w,c
  7232  001FC6  100C               	iorwf	(_mode+1)^0,w,c
  7233  001FC8  A4D8               	btfss	status,2,c
  7234  001FCA  EFE9  F00F         	goto	i2u564_41
  7235  001FCE  EFEB  F00F         	goto	i2u564_40
  7236  001FD2                     i2u564_41:
  7237  001FD2  EFFB  F00F         	goto	i2l4066
  7238  001FD6                     i2u564_40:
  7239  001FD6                     
  7240                           ;the3.c: 185:   {;the3.c: 186:     adcVal = (ADRESH << 8) + ADRESL;
  7241  001FD6  50C4               	movf	196,w,c	;volatile
  7242  001FD8  6E32               	movwf	(??_isr+1)^0,c
  7243  001FDA  6A31               	clrf	??_isr^0,c
  7244  001FDC  50C3               	movf	195,w,c	;volatile
  7245  001FDE  2431               	addwf	??_isr^0,w,c
  7246  001FE0  6E17               	movwf	_adcVal^0,c
  7247  001FE2  0E00               	movlw	0
  7248  001FE4  2032               	addwfc	(??_isr+1)^0,w,c
  7249  001FE6  6E18               	movwf	(_adcVal+1)^0,c
  7250  001FE8                     
  7251                           ;the3.c: 187:     ADCtoLCD(adcVal);
  7252  001FE8  C017  F028         	movff	_adcVal,ADCtoLCD@adcVal
  7253  001FEC  C018  F029         	movff	_adcVal+1,ADCtoLCD@adcVal+1
  7254  001FF0  EC92  F00B         	call	_ADCtoLCD	;wreg free
  7255  001FF4                     
  7256                           ;the3.c: 188:     ADIF = 0;
  7257  001FF4  9C9E               	bcf	3998,6,c	;volatile
  7258  001FF6                     i2l4066:
  7259                           
  7260                           ;the3.c: 190:   digit = interruptCountTMR0 % 3;
  7261  001FF6  C019  F027         	movff	_interruptCountTMR0,___awmod@dividend
  7262  001FFA  C01A  F028         	movff	_interruptCountTMR0+1,___awmod@dividend+1
  7263  001FFE  0E00               	movlw	0
  7264  002000  6E2A               	movwf	(___awmod@divisor+1)^0,c
  7265  002002  0E03               	movlw	3
  7266  002004  6E29               	movwf	___awmod@divisor^0,c
  7267  002006  ECCD  F011         	call	___awmod	;wreg free
  7268  00200A  C027  F013         	movff	?___awmod,_digit
  7269  00200E  C028  F014         	movff	?___awmod+1,_digit+1
  7270                           
  7271                           ;the3.c: 191:   switch (digit)
  7272  002012  EF17  F010         	goto	i2l4076
  7273  002016                     i2l4068:
  7274                           
  7275                           ;the3.c: 194:     set_custom_num_seven_segment();
  7276  002016  EC73  F011         	call	_set_custom_num_seven_segment	;wreg free
  7277                           
  7278                           ;the3.c: 195:     break;
  7279  00201A  EF31  F010         	goto	i2l241
  7280  00201E                     i2l4070:
  7281                           
  7282                           ;the3.c: 197:     set_xCoord_seven_segment();
  7283  00201E  EC7C  F014         	call	_set_xCoord_seven_segment	;wreg free
  7284                           
  7285                           ;the3.c: 198:     break;
  7286  002022  EF31  F010         	goto	i2l241
  7287  002026                     i2l4072:
  7288                           
  7289                           ;the3.c: 200:     set_yCoord_seven_segment();
  7290  002026  EC25  F012         	call	_set_yCoord_seven_segment	;wreg free
  7291                           
  7292                           ;the3.c: 201:     break;
  7293  00202A  EF31  F010         	goto	i2l241
  7294  00202E                     i2l4076:
  7295  00202E  C013  F031         	movff	_digit,??_isr
  7296  002032  C014  F032         	movff	_digit+1,??_isr+1
  7297                           
  7298                           ; Switch on 2 bytes has been partitioned into a top level switch of size 1, and 1 sub-sw
      +                          itches
  7299                           ; Switch size 1, requested type "simple"
  7300                           ; Number of cases is 1, Range of values is 0 to 0
  7301                           ; switch strategies available:
  7302                           ; Name         Instructions Cycles
  7303                           ; simple_byte            4     3 (average)
  7304                           ;	Chosen strategy is simple_byte
  7305  002036  5032               	movf	(??_isr+1)^0,w,c
  7306  002038  0A00               	xorlw	0	; case 0
  7307  00203A  B4D8               	btfsc	status,2,c
  7308  00203C  EF22  F010         	goto	i2l5304
  7309  002040  EF31  F010         	goto	i2l241
  7310  002044                     i2l5304:
  7311                           
  7312                           ; Switch size 1, requested type "simple"
  7313                           ; Number of cases is 3, Range of values is 0 to 2
  7314                           ; switch strategies available:
  7315                           ; Name         Instructions Cycles
  7316                           ; simple_byte           10     6 (average)
  7317                           ;	Chosen strategy is simple_byte
  7318  002044  5031               	movf	??_isr^0,w,c
  7319  002046  0A00               	xorlw	0	; case 0
  7320  002048  B4D8               	btfsc	status,2,c
  7321  00204A  EF0B  F010         	goto	i2l4068
  7322  00204E  0A01               	xorlw	1	; case 1
  7323  002050  B4D8               	btfsc	status,2,c
  7324  002052  EF0F  F010         	goto	i2l4070
  7325  002056  0A03               	xorlw	3	; case 2
  7326  002058  B4D8               	btfsc	status,2,c
  7327  00205A  EF13  F010         	goto	i2l4072
  7328  00205E  EF31  F010         	goto	i2l241
  7329  002062                     i2l241:
  7330  002062  9250               	bcf	int$flags,1,c	;clear compiler interrupt flag (level 2)
  7331  002064  0011               	retfie		f
  7332  002066                     __end_of_isr:
  7333                           	callstack 0
  7334                           
  7335 ;; *************** function _set_yCoord_seven_segment *****************
  7336 ;; Defined at:
  7337 ;;		line 225 in file "the3.c"
  7338 ;; Parameters:    Size  Location     Type
  7339 ;;		None
  7340 ;; Auto vars:     Size  Location     Type
  7341 ;;		None
  7342 ;; Return value:  Size  Location     Type
  7343 ;;                  1    wreg      void 
  7344 ;; Registers used:
  7345 ;;		wreg, status,2, status,0
  7346 ;; Tracked objects:
  7347 ;;		On entry : 0/0
  7348 ;;		On exit  : 0/0
  7349 ;;		Unchanged: 0/0
  7350 ;; Data sizes:     COMRAM   BANK0   BANK1   BANK2   BANK3   BANK4   BANK5   BANK6   BANK7   BANK8   BANK9  BANK10  BANK1
      +1  BANK12  BANK13  BANK14  BANK15
  7351 ;;      Params:         0       0       0       0       0       0       0       0       0       0       0       0       
      +0       0       0       0       0
  7352 ;;      Locals:         0       0       0       0       0       0       0       0       0       0       0       0       
      +0       0       0       0       0
  7353 ;;      Temps:          2       0       0       0       0       0       0       0       0       0       0       0       
      +0       0       0       0       0
  7354 ;;      Totals:         2       0       0       0       0       0       0       0       0       0       0       0       
      +0       0       0       0       0
  7355 ;;Total ram usage:        2 bytes
  7356 ;; Hardware stack levels used:    1
  7357 ;; This function calls:
  7358 ;;		Nothing
  7359 ;; This function is called by:
  7360 ;;		_isr
  7361 ;; This function uses a non-reentrant model
  7362 ;;
  7363                           
  7364                           	psect	text29
  7365  00244A                     __ptext29:
  7366                           	callstack 0
  7367  00244A                     _set_yCoord_seven_segment:
  7368                           	callstack 24
  7369  00244A                     
  7370                           ;the3.c: 227:   PORTH = 0b00001000;
  7371  00244A  0E08               	movlw	8
  7372  00244C  6E87               	movwf	135,c	;volatile
  7373                           
  7374                           ;the3.c: 228:   switch (yCoord)
  7375  00244E  EF49  F012         	goto	i2l2242
  7376  002452                     i2l2224:
  7377                           
  7378                           ;the3.c: 231:     PORTJ = 0b00111111;
  7379  002452  0E3F               	movlw	63
  7380  002454  6E88               	movwf	136,c	;volatile
  7381                           
  7382                           ;the3.c: 232:     break;
  7383  002456  EF76  F012         	goto	i2l263
  7384  00245A                     i2l2226:
  7385                           
  7386                           ;the3.c: 234:     PORTJ = 0b00000110;
  7387  00245A  0E06               	movlw	6
  7388  00245C  6E88               	movwf	136,c	;volatile
  7389                           
  7390                           ;the3.c: 235:     break;
  7391  00245E  EF76  F012         	goto	i2l263
  7392  002462                     i2l2228:
  7393                           
  7394                           ;the3.c: 237:     PORTJ = 0b01011011;
  7395  002462  0E5B               	movlw	91
  7396  002464  6E88               	movwf	136,c	;volatile
  7397                           
  7398                           ;the3.c: 238:     break;
  7399  002466  EF76  F012         	goto	i2l263
  7400  00246A                     i2l2230:
  7401                           
  7402                           ;the3.c: 240:     PORTJ = 0b01001111;
  7403  00246A  0E4F               	movlw	79
  7404  00246C  6E88               	movwf	136,c	;volatile
  7405                           
  7406                           ;the3.c: 241:     break;
  7407  00246E  EF76  F012         	goto	i2l263
  7408  002472                     i2l2232:
  7409                           
  7410                           ;the3.c: 243:     PORTJ = 0b01100110;
  7411  002472  0E66               	movlw	102
  7412  002474  6E88               	movwf	136,c	;volatile
  7413                           
  7414                           ;the3.c: 244:     break;
  7415  002476  EF76  F012         	goto	i2l263
  7416  00247A                     i2l2234:
  7417                           
  7418                           ;the3.c: 246:     PORTJ = 0b01101101;
  7419  00247A  0E6D               	movlw	109
  7420  00247C  6E88               	movwf	136,c	;volatile
  7421                           
  7422                           ;the3.c: 247:     break;
  7423  00247E  EF76  F012         	goto	i2l263
  7424  002482                     i2l2236:
  7425                           
  7426                           ;the3.c: 249:     PORTJ = 0b01111101;
  7427  002482  0E7D               	movlw	125
  7428  002484  6E88               	movwf	136,c	;volatile
  7429                           
  7430                           ;the3.c: 250:     break;
  7431  002486  EF76  F012         	goto	i2l263
  7432  00248A                     i2l2238:
  7433                           
  7434                           ;the3.c: 252:     PORTJ = 0b00000111;
  7435  00248A  0E07               	movlw	7
  7436  00248C  6E88               	movwf	136,c	;volatile
  7437                           
  7438                           ;the3.c: 253:     break;
  7439  00248E  EF76  F012         	goto	i2l263
  7440  002492                     i2l2242:
  7441  002492  501E               	movf	_yCoord^0,w,c
  7442  002494  6E27               	movwf	??_set_yCoord_seven_segment^0,c
  7443  002496  6A28               	clrf	(??_set_yCoord_seven_segment+1)^0,c
  7444                           
  7445                           ; Switch on 2 bytes has been partitioned into a top level switch of size 1, and 1 sub-sw
      +                          itches
  7446                           ; Switch size 1, requested type "simple"
  7447                           ; Number of cases is 1, Range of values is 0 to 0
  7448                           ; switch strategies available:
  7449                           ; Name         Instructions Cycles
  7450                           ; simple_byte            4     3 (average)
  7451                           ;	Chosen strategy is simple_byte
  7452  002498  5028               	movf	(??_set_yCoord_seven_segment+1)^0,w,c
  7453  00249A  0A00               	xorlw	0	; case 0
  7454  00249C  B4D8               	btfsc	status,2,c
  7455  00249E  EF53  F012         	goto	i2l5306
  7456  0024A2  EF76  F012         	goto	i2l263
  7457  0024A6                     i2l5306:
  7458                           
  7459                           ; Switch size 1, requested type "simple"
  7460                           ; Number of cases is 8, Range of values is 0 to 7
  7461                           ; switch strategies available:
  7462                           ; Name         Instructions Cycles
  7463                           ; simple_byte           25    13 (average)
  7464                           ;	Chosen strategy is simple_byte
  7465  0024A6  5027               	movf	??_set_yCoord_seven_segment^0,w,c
  7466  0024A8  0A00               	xorlw	0	; case 0
  7467  0024AA  B4D8               	btfsc	status,2,c
  7468  0024AC  EF29  F012         	goto	i2l2224
  7469  0024B0  0A01               	xorlw	1	; case 1
  7470  0024B2  B4D8               	btfsc	status,2,c
  7471  0024B4  EF2D  F012         	goto	i2l2226
  7472  0024B8  0A03               	xorlw	3	; case 2
  7473  0024BA  B4D8               	btfsc	status,2,c
  7474  0024BC  EF31  F012         	goto	i2l2228
  7475  0024C0  0A01               	xorlw	1	; case 3
  7476  0024C2  B4D8               	btfsc	status,2,c
  7477  0024C4  EF35  F012         	goto	i2l2230
  7478  0024C8  0A07               	xorlw	7	; case 4
  7479  0024CA  B4D8               	btfsc	status,2,c
  7480  0024CC  EF39  F012         	goto	i2l2232
  7481  0024D0  0A01               	xorlw	1	; case 5
  7482  0024D2  B4D8               	btfsc	status,2,c
  7483  0024D4  EF3D  F012         	goto	i2l2234
  7484  0024D8  0A03               	xorlw	3	; case 6
  7485  0024DA  B4D8               	btfsc	status,2,c
  7486  0024DC  EF41  F012         	goto	i2l2236
  7487  0024E0  0A01               	xorlw	1	; case 7
  7488  0024E2  B4D8               	btfsc	status,2,c
  7489  0024E4  EF45  F012         	goto	i2l2238
  7490  0024E8  EF76  F012         	goto	i2l263
  7491  0024EC                     i2l263:
  7492  0024EC  0012               	return		;funcret
  7493  0024EE                     __end_of_set_yCoord_seven_segment:
  7494                           	callstack 0
  7495                           
  7496 ;; *************** function _set_xCoord_seven_segment *****************
  7497 ;; Defined at:
  7498 ;;		line 205 in file "the3.c"
  7499 ;; Parameters:    Size  Location     Type
  7500 ;;		None
  7501 ;; Auto vars:     Size  Location     Type
  7502 ;;		None
  7503 ;; Return value:  Size  Location     Type
  7504 ;;                  1    wreg      void 
  7505 ;; Registers used:
  7506 ;;		wreg, status,2, status,0
  7507 ;; Tracked objects:
  7508 ;;		On entry : 0/0
  7509 ;;		On exit  : 0/0
  7510 ;;		Unchanged: 0/0
  7511 ;; Data sizes:     COMRAM   BANK0   BANK1   BANK2   BANK3   BANK4   BANK5   BANK6   BANK7   BANK8   BANK9  BANK10  BANK1
      +1  BANK12  BANK13  BANK14  BANK15
  7512 ;;      Params:         0       0       0       0       0       0       0       0       0       0       0       0       
      +0       0       0       0       0
  7513 ;;      Locals:         0       0       0       0       0       0       0       0       0       0       0       0       
      +0       0       0       0       0
  7514 ;;      Temps:          2       0       0       0       0       0       0       0       0       0       0       0       
      +0       0       0       0       0
  7515 ;;      Totals:         2       0       0       0       0       0       0       0       0       0       0       0       
      +0       0       0       0       0
  7516 ;;Total ram usage:        2 bytes
  7517 ;; Hardware stack levels used:    1
  7518 ;; This function calls:
  7519 ;;		Nothing
  7520 ;; This function is called by:
  7521 ;;		_isr
  7522 ;; This function uses a non-reentrant model
  7523 ;;
  7524                           
  7525                           	psect	text30
  7526  0028F8                     __ptext30:
  7527                           	callstack 0
  7528  0028F8                     _set_xCoord_seven_segment:
  7529                           	callstack 24
  7530  0028F8                     
  7531                           ;the3.c: 207:   PORTH = 0b00000100;
  7532  0028F8  0E04               	movlw	4
  7533  0028FA  6E87               	movwf	135,c	;volatile
  7534                           
  7535                           ;the3.c: 208:   switch (xCoord)
  7536  0028FC  EF90  F014         	goto	i2l2216
  7537  002900                     i2l2206:
  7538                           
  7539                           ;the3.c: 211:     PORTJ = 0b00111111;
  7540  002900  0E3F               	movlw	63
  7541  002902  6E88               	movwf	136,c	;volatile
  7542                           
  7543                           ;the3.c: 212:     break;
  7544  002904  EFAD  F014         	goto	i2l250
  7545  002908                     i2l2208:
  7546                           
  7547                           ;the3.c: 214:     PORTJ = 0b00000110;
  7548  002908  0E06               	movlw	6
  7549  00290A  6E88               	movwf	136,c	;volatile
  7550                           
  7551                           ;the3.c: 215:     break;
  7552  00290C  EFAD  F014         	goto	i2l250
  7553  002910                     i2l2210:
  7554                           
  7555                           ;the3.c: 217:     PORTJ = 0b01011011;
  7556  002910  0E5B               	movlw	91
  7557  002912  6E88               	movwf	136,c	;volatile
  7558                           
  7559                           ;the3.c: 218:     break;
  7560  002914  EFAD  F014         	goto	i2l250
  7561  002918                     i2l2212:
  7562                           
  7563                           ;the3.c: 220:     PORTJ = 0b01001111;
  7564  002918  0E4F               	movlw	79
  7565  00291A  6E88               	movwf	136,c	;volatile
  7566                           
  7567                           ;the3.c: 221:     break;
  7568  00291C  EFAD  F014         	goto	i2l250
  7569  002920                     i2l2216:
  7570  002920  501F               	movf	_xCoord^0,w,c
  7571  002922  6E27               	movwf	??_set_xCoord_seven_segment^0,c
  7572  002924  6A28               	clrf	(??_set_xCoord_seven_segment+1)^0,c
  7573                           
  7574                           ; Switch on 2 bytes has been partitioned into a top level switch of size 1, and 1 sub-sw
      +                          itches
  7575                           ; Switch size 1, requested type "simple"
  7576                           ; Number of cases is 1, Range of values is 0 to 0
  7577                           ; switch strategies available:
  7578                           ; Name         Instructions Cycles
  7579                           ; simple_byte            4     3 (average)
  7580                           ;	Chosen strategy is simple_byte
  7581  002926  5028               	movf	(??_set_xCoord_seven_segment+1)^0,w,c
  7582  002928  0A00               	xorlw	0	; case 0
  7583  00292A  B4D8               	btfsc	status,2,c
  7584  00292C  EF9A  F014         	goto	i2l5308
  7585  002930  EFAD  F014         	goto	i2l250
  7586  002934                     i2l5308:
  7587                           
  7588                           ; Switch size 1, requested type "simple"
  7589                           ; Number of cases is 4, Range of values is 0 to 3
  7590                           ; switch strategies available:
  7591                           ; Name         Instructions Cycles
  7592                           ; simple_byte           13     7 (average)
  7593                           ;	Chosen strategy is simple_byte
  7594  002934  5027               	movf	??_set_xCoord_seven_segment^0,w,c
  7595  002936  0A00               	xorlw	0	; case 0
  7596  002938  B4D8               	btfsc	status,2,c
  7597  00293A  EF80  F014         	goto	i2l2206
  7598  00293E  0A01               	xorlw	1	; case 1
  7599  002940  B4D8               	btfsc	status,2,c
  7600  002942  EF84  F014         	goto	i2l2208
  7601  002946  0A03               	xorlw	3	; case 2
  7602  002948  B4D8               	btfsc	status,2,c
  7603  00294A  EF88  F014         	goto	i2l2210
  7604  00294E  0A01               	xorlw	1	; case 3
  7605  002950  B4D8               	btfsc	status,2,c
  7606  002952  EF8C  F014         	goto	i2l2212
  7607  002956  EFAD  F014         	goto	i2l250
  7608  00295A                     i2l250:
  7609  00295A  0012               	return		;funcret
  7610  00295C                     __end_of_set_xCoord_seven_segment:
  7611                           	callstack 0
  7612                           
  7613 ;; *************** function _set_custom_num_seven_segment *****************
  7614 ;; Defined at:
  7615 ;;		line 257 in file "the3.c"
  7616 ;; Parameters:    Size  Location     Type
  7617 ;;		None
  7618 ;; Auto vars:     Size  Location     Type
  7619 ;;		None
  7620 ;; Return value:  Size  Location     Type
  7621 ;;                  1    wreg      void 
  7622 ;; Registers used:
  7623 ;;		wreg, status,2, status,0
  7624 ;; Tracked objects:
  7625 ;;		On entry : 0/0
  7626 ;;		On exit  : 0/0
  7627 ;;		Unchanged: 0/0
  7628 ;; Data sizes:     COMRAM   BANK0   BANK1   BANK2   BANK3   BANK4   BANK5   BANK6   BANK7   BANK8   BANK9  BANK10  BANK1
      +1  BANK12  BANK13  BANK14  BANK15
  7629 ;;      Params:         0       0       0       0       0       0       0       0       0       0       0       0       
      +0       0       0       0       0
  7630 ;;      Locals:         0       0       0       0       0       0       0       0       0       0       0       0       
      +0       0       0       0       0
  7631 ;;      Temps:          2       0       0       0       0       0       0       0       0       0       0       0       
      +0       0       0       0       0
  7632 ;;      Totals:         2       0       0       0       0       0       0       0       0       0       0       0       
      +0       0       0       0       0
  7633 ;;Total ram usage:        2 bytes
  7634 ;; Hardware stack levels used:    1
  7635 ;; This function calls:
  7636 ;;		Nothing
  7637 ;; This function is called by:
  7638 ;;		_isr
  7639 ;; This function uses a non-reentrant model
  7640 ;;
  7641                           
  7642                           	psect	text31
  7643  0022E6                     __ptext31:
  7644                           	callstack 0
  7645  0022E6                     _set_custom_num_seven_segment:
  7646                           	callstack 24
  7647  0022E6                     
  7648                           ;the3.c: 259:   PORTH = 0b00000001;
  7649  0022E6  0E01               	movlw	1
  7650  0022E8  6E87               	movwf	135,c	;volatile
  7651                           
  7652                           ;the3.c: 260:   switch (customNum)
  7653  0022EA  EF9B  F011         	goto	i2l2198
  7654  0022EE                     i2l2178:
  7655                           
  7656                           ;the3.c: 263:     PORTJ = 0b00111111;
  7657  0022EE  0E3F               	movlw	63
  7658  0022F0  6E88               	movwf	136,c	;volatile
  7659                           
  7660                           ;the3.c: 264:     break;
  7661  0022F2  EFCC  F011         	goto	i2l277
  7662  0022F6                     i2l2180:
  7663                           
  7664                           ;the3.c: 266:     PORTJ = 0b00000110;
  7665  0022F6  0E06               	movlw	6
  7666  0022F8  6E88               	movwf	136,c	;volatile
  7667                           
  7668                           ;the3.c: 267:     break;
  7669  0022FA  EFCC  F011         	goto	i2l277
  7670  0022FE                     i2l2182:
  7671                           
  7672                           ;the3.c: 269:     PORTJ = 0b01011011;
  7673  0022FE  0E5B               	movlw	91
  7674  002300  6E88               	movwf	136,c	;volatile
  7675                           
  7676                           ;the3.c: 270:     break;
  7677  002302  EFCC  F011         	goto	i2l277
  7678  002306                     i2l2184:
  7679                           
  7680                           ;the3.c: 272:     PORTJ = 0b01001111;
  7681  002306  0E4F               	movlw	79
  7682  002308  6E88               	movwf	136,c	;volatile
  7683                           
  7684                           ;the3.c: 273:     break;
  7685  00230A  EFCC  F011         	goto	i2l277
  7686  00230E                     i2l2186:
  7687                           
  7688                           ;the3.c: 275:     PORTJ = 0b01100110;
  7689  00230E  0E66               	movlw	102
  7690  002310  6E88               	movwf	136,c	;volatile
  7691                           
  7692                           ;the3.c: 276:     break;
  7693  002312  EFCC  F011         	goto	i2l277
  7694  002316                     i2l2188:
  7695                           
  7696                           ;the3.c: 278:     PORTJ = 0b01101101;
  7697  002316  0E6D               	movlw	109
  7698  002318  6E88               	movwf	136,c	;volatile
  7699                           
  7700                           ;the3.c: 279:     break;
  7701  00231A  EFCC  F011         	goto	i2l277
  7702  00231E                     i2l2190:
  7703                           
  7704                           ;the3.c: 281:     PORTJ = 0b01111101;
  7705  00231E  0E7D               	movlw	125
  7706  002320  6E88               	movwf	136,c	;volatile
  7707                           
  7708                           ;the3.c: 282:     break;
  7709  002322  EFCC  F011         	goto	i2l277
  7710  002326                     i2l2192:
  7711                           
  7712                           ;the3.c: 284:     PORTJ = 0b00000111;
  7713  002326  0E07               	movlw	7
  7714  002328  6E88               	movwf	136,c	;volatile
  7715                           
  7716                           ;the3.c: 285:     break;
  7717  00232A  EFCC  F011         	goto	i2l277
  7718  00232E                     i2l2194:
  7719                           
  7720                           ;the3.c: 287:     PORTJ = 0b01111111;
  7721  00232E  0E7F               	movlw	127
  7722  002330  6E88               	movwf	136,c	;volatile
  7723                           
  7724                           ;the3.c: 288:     break;
  7725  002332  EFCC  F011         	goto	i2l277
  7726  002336                     i2l2198:
  7727  002336  5020               	movf	_customNum^0,w,c
  7728  002338  6E27               	movwf	??_set_custom_num_seven_segment^0,c
  7729  00233A  6A28               	clrf	(??_set_custom_num_seven_segment+1)^0,c
  7730                           
  7731                           ; Switch on 2 bytes has been partitioned into a top level switch of size 1, and 1 sub-sw
      +                          itches
  7732                           ; Switch size 1, requested type "simple"
  7733                           ; Number of cases is 1, Range of values is 0 to 0
  7734                           ; switch strategies available:
  7735                           ; Name         Instructions Cycles
  7736                           ; simple_byte            4     3 (average)
  7737                           ;	Chosen strategy is simple_byte
  7738  00233C  5028               	movf	(??_set_custom_num_seven_segment+1)^0,w,c
  7739  00233E  0A00               	xorlw	0	; case 0
  7740  002340  B4D8               	btfsc	status,2,c
  7741  002342  EFA5  F011         	goto	i2l5310
  7742  002346  EFCC  F011         	goto	i2l277
  7743  00234A                     i2l5310:
  7744                           
  7745                           ; Switch size 1, requested type "simple"
  7746                           ; Number of cases is 9, Range of values is 0 to 8
  7747                           ; switch strategies available:
  7748                           ; Name         Instructions Cycles
  7749                           ; simple_byte           28    15 (average)
  7750                           ;	Chosen strategy is simple_byte
  7751  00234A  5027               	movf	??_set_custom_num_seven_segment^0,w,c
  7752  00234C  0A00               	xorlw	0	; case 0
  7753  00234E  B4D8               	btfsc	status,2,c
  7754  002350  EF77  F011         	goto	i2l2178
  7755  002354  0A01               	xorlw	1	; case 1
  7756  002356  B4D8               	btfsc	status,2,c
  7757  002358  EF7B  F011         	goto	i2l2180
  7758  00235C  0A03               	xorlw	3	; case 2
  7759  00235E  B4D8               	btfsc	status,2,c
  7760  002360  EF7F  F011         	goto	i2l2182
  7761  002364  0A01               	xorlw	1	; case 3
  7762  002366  B4D8               	btfsc	status,2,c
  7763  002368  EF83  F011         	goto	i2l2184
  7764  00236C  0A07               	xorlw	7	; case 4
  7765  00236E  B4D8               	btfsc	status,2,c
  7766  002370  EF87  F011         	goto	i2l2186
  7767  002374  0A01               	xorlw	1	; case 5
  7768  002376  B4D8               	btfsc	status,2,c
  7769  002378  EF8B  F011         	goto	i2l2188
  7770  00237C  0A03               	xorlw	3	; case 6
  7771  00237E  B4D8               	btfsc	status,2,c
  7772  002380  EF8F  F011         	goto	i2l2190
  7773  002384  0A01               	xorlw	1	; case 7
  7774  002386  B4D8               	btfsc	status,2,c
  7775  002388  EF93  F011         	goto	i2l2192
  7776  00238C  0A0F               	xorlw	15	; case 8
  7777  00238E  B4D8               	btfsc	status,2,c
  7778  002390  EF97  F011         	goto	i2l2194
  7779  002394  EFCC  F011         	goto	i2l277
  7780  002398                     i2l277:
  7781  002398  0012               	return		;funcret
  7782  00239A                     __end_of_set_custom_num_seven_segment:
  7783                           	callstack 0
  7784                           
  7785 ;; *************** function ___awmod *****************
  7786 ;; Defined at:
  7787 ;;		line 7 in file "C:\Program Files\Microchip\xc8\v2.30\pic\sources\c99\common\awmod.c"
  7788 ;; Parameters:    Size  Location     Type
  7789 ;;  dividend        2    0[COMRAM] int 
  7790 ;;  divisor         2    2[COMRAM] int 
  7791 ;; Auto vars:     Size  Location     Type
  7792 ;;  sign            1    5[COMRAM] unsigned char 
  7793 ;;  counter         1    4[COMRAM] unsigned char 
  7794 ;; Return value:  Size  Location     Type
  7795 ;;                  2    0[COMRAM] int 
  7796 ;; Registers used:
  7797 ;;		wreg, status,2, status,0
  7798 ;; Tracked objects:
  7799 ;;		On entry : 0/0
  7800 ;;		On exit  : 0/0
  7801 ;;		Unchanged: 0/0
  7802 ;; Data sizes:     COMRAM   BANK0   BANK1   BANK2   BANK3   BANK4   BANK5   BANK6   BANK7   BANK8   BANK9  BANK10  BANK1
      +1  BANK12  BANK13  BANK14  BANK15
  7803 ;;      Params:         4       0       0       0       0       0       0       0       0       0       0       0       
      +0       0       0       0       0
  7804 ;;      Locals:         2       0       0       0       0       0       0       0       0       0       0       0       
      +0       0       0       0       0
  7805 ;;      Temps:          0       0       0       0       0       0       0       0       0       0       0       0       
      +0       0       0       0       0
  7806 ;;      Totals:         6       0       0       0       0       0       0       0       0       0       0       0       
      +0       0       0       0       0
  7807 ;;Total ram usage:        6 bytes
  7808 ;; Hardware stack levels used:    1
  7809 ;; This function calls:
  7810 ;;		Nothing
  7811 ;; This function is called by:
  7812 ;;		_isr
  7813 ;; This function uses a non-reentrant model
  7814 ;;
  7815                           
  7816                           	psect	text32
  7817  00239A                     __ptext32:
  7818                           	callstack 0
  7819  00239A                     ___awmod:
  7820                           	callstack 24
  7821  00239A  0E00               	movlw	0
  7822  00239C  6E2C               	movwf	___awmod@sign^0,c
  7823  00239E  BE28               	btfsc	(___awmod@dividend+1)^0,7,c
  7824  0023A0  EFD6  F011         	goto	i2u553_40
  7825  0023A4  EFD4  F011         	goto	i2u553_41
  7826  0023A8                     i2u553_41:
  7827  0023A8  EFDC  F011         	goto	i2l3990
  7828  0023AC                     i2u553_40:
  7829  0023AC  6C27               	negf	___awmod@dividend^0,c
  7830  0023AE  1E28               	comf	(___awmod@dividend+1)^0,f,c
  7831  0023B0  B0D8               	btfsc	status,0,c
  7832  0023B2  2A28               	incf	(___awmod@dividend+1)^0,f,c
  7833  0023B4  0E01               	movlw	1
  7834  0023B6  6E2C               	movwf	___awmod@sign^0,c
  7835  0023B8                     i2l3990:
  7836  0023B8  BE2A               	btfsc	(___awmod@divisor+1)^0,7,c
  7837  0023BA  EFE3  F011         	goto	i2u554_40
  7838  0023BE  EFE1  F011         	goto	i2u554_41
  7839  0023C2                     i2u554_41:
  7840  0023C2  EFE7  F011         	goto	i2l3994
  7841  0023C6                     i2u554_40:
  7842  0023C6  6C29               	negf	___awmod@divisor^0,c
  7843  0023C8  1E2A               	comf	(___awmod@divisor+1)^0,f,c
  7844  0023CA  B0D8               	btfsc	status,0,c
  7845  0023CC  2A2A               	incf	(___awmod@divisor+1)^0,f,c
  7846  0023CE                     i2l3994:
  7847  0023CE  5029               	movf	___awmod@divisor^0,w,c
  7848  0023D0  102A               	iorwf	(___awmod@divisor+1)^0,w,c
  7849  0023D2  B4D8               	btfsc	status,2,c
  7850  0023D4  EFEE  F011         	goto	i2u555_41
  7851  0023D8  EFF0  F011         	goto	i2u555_40
  7852  0023DC                     i2u555_41:
  7853  0023DC  EF14  F012         	goto	i2l4010
  7854  0023E0                     i2u555_40:
  7855  0023E0  0E01               	movlw	1
  7856  0023E2  6E2B               	movwf	___awmod@counter^0,c
  7857  0023E4  EFF8  F011         	goto	i2l4000
  7858  0023E8                     i2l3998:
  7859  0023E8  90D8               	bcf	status,0,c
  7860  0023EA  3629               	rlcf	___awmod@divisor^0,f,c
  7861  0023EC  362A               	rlcf	(___awmod@divisor+1)^0,f,c
  7862  0023EE  2A2B               	incf	___awmod@counter^0,f,c
  7863  0023F0                     i2l4000:
  7864  0023F0  AE2A               	btfss	(___awmod@divisor+1)^0,7,c
  7865  0023F2  EFFD  F011         	goto	i2u556_41
  7866  0023F6  EFFF  F011         	goto	i2u556_40
  7867  0023FA                     i2u556_41:
  7868  0023FA  EFF4  F011         	goto	i2l3998
  7869  0023FE                     i2u556_40:
  7870  0023FE                     i2l4002:
  7871  0023FE  5029               	movf	___awmod@divisor^0,w,c
  7872  002400  5C27               	subwf	___awmod@dividend^0,w,c
  7873  002402  502A               	movf	(___awmod@divisor+1)^0,w,c
  7874  002404  5828               	subwfb	(___awmod@dividend+1)^0,w,c
  7875  002406  A0D8               	btfss	status,0,c
  7876  002408  EF08  F012         	goto	i2u557_41
  7877  00240C  EF0A  F012         	goto	i2u557_40
  7878  002410                     i2u557_41:
  7879  002410  EF0E  F012         	goto	i2l4006
  7880  002414                     i2u557_40:
  7881  002414  5029               	movf	___awmod@divisor^0,w,c
  7882  002416  5E27               	subwf	___awmod@dividend^0,f,c
  7883  002418  502A               	movf	(___awmod@divisor+1)^0,w,c
  7884  00241A  5A28               	subwfb	(___awmod@dividend+1)^0,f,c
  7885  00241C                     i2l4006:
  7886  00241C  90D8               	bcf	status,0,c
  7887  00241E  322A               	rrcf	(___awmod@divisor+1)^0,f,c
  7888  002420  3229               	rrcf	___awmod@divisor^0,f,c
  7889  002422  2E2B               	decfsz	___awmod@counter^0,f,c
  7890  002424  EFFF  F011         	goto	i2l4002
  7891  002428                     i2l4010:
  7892  002428  502C               	movf	___awmod@sign^0,w,c
  7893  00242A  B4D8               	btfsc	status,2,c
  7894  00242C  EF1A  F012         	goto	i2u558_41
  7895  002430  EF1C  F012         	goto	i2u558_40
  7896  002434                     i2u558_41:
  7897  002434  EF20  F012         	goto	i2l4014
  7898  002438                     i2u558_40:
  7899  002438  6C27               	negf	___awmod@dividend^0,c
  7900  00243A  1E28               	comf	(___awmod@dividend+1)^0,f,c
  7901  00243C  B0D8               	btfsc	status,0,c
  7902  00243E  2A28               	incf	(___awmod@dividend+1)^0,f,c
  7903  002440                     i2l4014:
  7904  002440  C027  F027         	movff	___awmod@dividend,?___awmod
  7905  002444  C028  F028         	movff	___awmod@dividend+1,?___awmod+1
  7906  002448  0012               	return		;funcret
  7907  00244A                     __end_of___awmod:
  7908                           	callstack 0
  7909                           
  7910 ;; *************** function _ADCtoLCD *****************
  7911 ;; Defined at:
  7912 ;;		line 292 in file "the3.c"
  7913 ;; Parameters:    Size  Location     Type
  7914 ;;  adcVal          2    1[COMRAM] unsigned short 
  7915 ;; Auto vars:     Size  Location     Type
  7916 ;;  i               2    8[COMRAM] int 
  7917 ;;  i               2    6[COMRAM] int 
  7918 ;; Return value:  Size  Location     Type
  7919 ;;                  1    wreg      void 
  7920 ;; Registers used:
  7921 ;;		wreg, status,2, status,0, cstack
  7922 ;; Tracked objects:
  7923 ;;		On entry : 0/0
  7924 ;;		On exit  : 0/0
  7925 ;;		Unchanged: 0/0
  7926 ;; Data sizes:     COMRAM   BANK0   BANK1   BANK2   BANK3   BANK4   BANK5   BANK6   BANK7   BANK8   BANK9  BANK10  BANK1
      +1  BANK12  BANK13  BANK14  BANK15
  7927 ;;      Params:         2       0       0       0       0       0       0       0       0       0       0       0       
      +0       0       0       0       0
  7928 ;;      Locals:         4       0       0       0       0       0       0       0       0       0       0       0       
      +0       0       0       0       0
  7929 ;;      Temps:          3       0       0       0       0       0       0       0       0       0       0       0       
      +0       0       0       0       0
  7930 ;;      Totals:         9       0       0       0       0       0       0       0       0       0       0       0       
      +0       0       0       0       0
  7931 ;;Total ram usage:        9 bytes
  7932 ;; Hardware stack levels used:    1
  7933 ;; Hardware stack levels required when called:    2
  7934 ;; This function calls:
  7935 ;;		i2_LcdCmd
  7936 ;; This function is called by:
  7937 ;;		_isr
  7938 ;; This function uses a non-reentrant model
  7939 ;;
  7940                           
  7941                           	psect	text33
  7942  001724                     __ptext33:
  7943                           	callstack 0
  7944  001724                     _ADCtoLCD:
  7945                           	callstack 22
  7946  001724                     
  7947                           ;the3.c: 292: void ADCtoLCD(uint16_t adcVal);the3.c: 293: {;the3.c: 294:   if (adcVal <=
      +                           63)
  7948  001724  5029               	movf	(ADCtoLCD@adcVal+1)^0,w,c
  7949  001726  E107               	bnz	i2u476_41
  7950  001728  0E40               	movlw	64
  7951  00172A  5C28               	subwf	ADCtoLCD@adcVal^0,w,c
  7952  00172C  B0D8               	btfsc	status,0,c
  7953  00172E  EF9B  F00B         	goto	i2u476_41
  7954  001732  EF9D  F00B         	goto	i2u476_40
  7955  001736                     i2u476_41:
  7956  001736  EFA1  F00B         	goto	i2l3536
  7957  00173A                     i2u476_40:
  7958  00173A                     
  7959                           ;the3.c: 295:   {;the3.c: 296:     ledIndex = 0;
  7960  00173A  0E00               	movlw	0
  7961  00173C  6E1D               	movwf	_ledIndex^0,c
  7962                           
  7963                           ;the3.c: 297:   }
  7964  00173E  EF0E  F00D         	goto	i2l3624
  7965  001742                     i2l3536:
  7966  001742  5029               	movf	(ADCtoLCD@adcVal+1)^0,w,c
  7967  001744  E109               	bnz	i2u477_40
  7968  001746  0E40               	movlw	64
  7969  001748  5C28               	subwf	ADCtoLCD@adcVal^0,w,c
  7970  00174A  A0D8               	btfss	status,0,c
  7971  00174C  EFAA  F00B         	goto	i2u477_41
  7972  001750  EFAC  F00B         	goto	i2u477_40
  7973  001754                     i2u477_41:
  7974  001754  EFBB  F00B         	goto	i2l3542
  7975  001758                     i2u477_40:
  7976  001758  5029               	movf	(ADCtoLCD@adcVal+1)^0,w,c
  7977  00175A  E107               	bnz	i2u478_41
  7978  00175C  0E80               	movlw	128
  7979  00175E  5C28               	subwf	ADCtoLCD@adcVal^0,w,c
  7980  001760  B0D8               	btfsc	status,0,c
  7981  001762  EFB5  F00B         	goto	i2u478_41
  7982  001766  EFB7  F00B         	goto	i2u478_40
  7983  00176A                     i2u478_41:
  7984  00176A  EFBB  F00B         	goto	i2l3542
  7985  00176E                     i2u478_40:
  7986  00176E                     
  7987                           ;the3.c: 299:   {;the3.c: 300:     ledIndex = 1;
  7988  00176E  0E01               	movlw	1
  7989  001770  6E1D               	movwf	_ledIndex^0,c
  7990                           
  7991                           ;the3.c: 301:   }
  7992  001772  EF0E  F00D         	goto	i2l3624
  7993  001776                     i2l3542:
  7994  001776  5029               	movf	(ADCtoLCD@adcVal+1)^0,w,c
  7995  001778  E109               	bnz	i2u479_40
  7996  00177A  0E80               	movlw	128
  7997  00177C  5C28               	subwf	ADCtoLCD@adcVal^0,w,c
  7998  00177E  A0D8               	btfss	status,0,c
  7999  001780  EFC4  F00B         	goto	i2u479_41
  8000  001784  EFC6  F00B         	goto	i2u479_40
  8001  001788                     i2u479_41:
  8002  001788  EFD5  F00B         	goto	i2l3548
  8003  00178C                     i2u479_40:
  8004  00178C  5029               	movf	(ADCtoLCD@adcVal+1)^0,w,c
  8005  00178E  E107               	bnz	i2u480_41
  8006  001790  0EC0               	movlw	192
  8007  001792  5C28               	subwf	ADCtoLCD@adcVal^0,w,c
  8008  001794  B0D8               	btfsc	status,0,c
  8009  001796  EFCF  F00B         	goto	i2u480_41
  8010  00179A  EFD1  F00B         	goto	i2u480_40
  8011  00179E                     i2u480_41:
  8012  00179E  EFD5  F00B         	goto	i2l3548
  8013  0017A2                     i2u480_40:
  8014  0017A2                     
  8015                           ;the3.c: 303:   {;the3.c: 304:     ledIndex = 2;
  8016  0017A2  0E02               	movlw	2
  8017  0017A4  6E1D               	movwf	_ledIndex^0,c
  8018                           
  8019                           ;the3.c: 305:   }
  8020  0017A6  EF0E  F00D         	goto	i2l3624
  8021  0017AA                     i2l3548:
  8022  0017AA  5029               	movf	(ADCtoLCD@adcVal+1)^0,w,c
  8023  0017AC  E109               	bnz	i2u481_40
  8024  0017AE  0EC0               	movlw	192
  8025  0017B0  5C28               	subwf	ADCtoLCD@adcVal^0,w,c
  8026  0017B2  A0D8               	btfss	status,0,c
  8027  0017B4  EFDE  F00B         	goto	i2u481_41
  8028  0017B8  EFE0  F00B         	goto	i2u481_40
  8029  0017BC                     i2u481_41:
  8030  0017BC  EFEC  F00B         	goto	i2l3554
  8031  0017C0                     i2u481_40:
  8032  0017C0  0429               	decf	(ADCtoLCD@adcVal+1)^0,w,c
  8033  0017C2  B0D8               	btfsc	status,0,c
  8034  0017C4  EFE6  F00B         	goto	i2u482_41
  8035  0017C8  EFE8  F00B         	goto	i2u482_40
  8036  0017CC                     i2u482_41:
  8037  0017CC  EFEC  F00B         	goto	i2l3554
  8038  0017D0                     i2u482_40:
  8039  0017D0                     
  8040                           ;the3.c: 307:   {;the3.c: 308:     ledIndex = 3;
  8041  0017D0  0E03               	movlw	3
  8042  0017D2  6E1D               	movwf	_ledIndex^0,c
  8043                           
  8044                           ;the3.c: 309:   }
  8045  0017D4  EF0E  F00D         	goto	i2l3624
  8046  0017D8                     i2l3554:
  8047  0017D8  0429               	decf	(ADCtoLCD@adcVal+1)^0,w,c
  8048  0017DA  A0D8               	btfss	status,0,c
  8049  0017DC  EFF2  F00B         	goto	i2u483_41
  8050  0017E0  EFF4  F00B         	goto	i2u483_40
  8051  0017E4                     i2u483_41:
  8052  0017E4  EF03  F00C         	goto	i2l3560
  8053  0017E8                     i2u483_40:
  8054  0017E8  0E40               	movlw	64
  8055  0017EA  5C28               	subwf	ADCtoLCD@adcVal^0,w,c
  8056  0017EC  0E01               	movlw	1
  8057  0017EE  5829               	subwfb	(ADCtoLCD@adcVal+1)^0,w,c
  8058  0017F0  B0D8               	btfsc	status,0,c
  8059  0017F2  EFFD  F00B         	goto	i2u484_41
  8060  0017F6  EFFF  F00B         	goto	i2u484_40
  8061  0017FA                     i2u484_41:
  8062  0017FA  EF03  F00C         	goto	i2l3560
  8063  0017FE                     i2u484_40:
  8064  0017FE                     
  8065                           ;the3.c: 311:   {;the3.c: 312:     ledIndex = 4;
  8066  0017FE  0E04               	movlw	4
  8067  001800  6E1D               	movwf	_ledIndex^0,c
  8068                           
  8069                           ;the3.c: 313:   }
  8070  001802  EF0E  F00D         	goto	i2l3624
  8071  001806                     i2l3560:
  8072  001806  0E40               	movlw	64
  8073  001808  5C28               	subwf	ADCtoLCD@adcVal^0,w,c
  8074  00180A  0E01               	movlw	1
  8075  00180C  5829               	subwfb	(ADCtoLCD@adcVal+1)^0,w,c
  8076  00180E  A0D8               	btfss	status,0,c
  8077  001810  EF0C  F00C         	goto	i2u485_41
  8078  001814  EF0E  F00C         	goto	i2u485_40
  8079  001818                     i2u485_41:
  8080  001818  EF1D  F00C         	goto	i2l3566
  8081  00181C                     i2u485_40:
  8082  00181C  0E80               	movlw	128
  8083  00181E  5C28               	subwf	ADCtoLCD@adcVal^0,w,c
  8084  001820  0E01               	movlw	1
  8085  001822  5829               	subwfb	(ADCtoLCD@adcVal+1)^0,w,c
  8086  001824  B0D8               	btfsc	status,0,c
  8087  001826  EF17  F00C         	goto	i2u486_41
  8088  00182A  EF19  F00C         	goto	i2u486_40
  8089  00182E                     i2u486_41:
  8090  00182E  EF1D  F00C         	goto	i2l3566
  8091  001832                     i2u486_40:
  8092  001832                     
  8093                           ;the3.c: 315:   {;the3.c: 316:     ledIndex = 5;
  8094  001832  0E05               	movlw	5
  8095  001834  6E1D               	movwf	_ledIndex^0,c
  8096                           
  8097                           ;the3.c: 317:   }
  8098  001836  EF0E  F00D         	goto	i2l3624
  8099  00183A                     i2l3566:
  8100  00183A  0E80               	movlw	128
  8101  00183C  5C28               	subwf	ADCtoLCD@adcVal^0,w,c
  8102  00183E  0E01               	movlw	1
  8103  001840  5829               	subwfb	(ADCtoLCD@adcVal+1)^0,w,c
  8104  001842  A0D8               	btfss	status,0,c
  8105  001844  EF26  F00C         	goto	i2u487_41
  8106  001848  EF28  F00C         	goto	i2u487_40
  8107  00184C                     i2u487_41:
  8108  00184C  EF37  F00C         	goto	i2l3572
  8109  001850                     i2u487_40:
  8110  001850  0EC0               	movlw	192
  8111  001852  5C28               	subwf	ADCtoLCD@adcVal^0,w,c
  8112  001854  0E01               	movlw	1
  8113  001856  5829               	subwfb	(ADCtoLCD@adcVal+1)^0,w,c
  8114  001858  B0D8               	btfsc	status,0,c
  8115  00185A  EF31  F00C         	goto	i2u488_41
  8116  00185E  EF33  F00C         	goto	i2u488_40
  8117  001862                     i2u488_41:
  8118  001862  EF37  F00C         	goto	i2l3572
  8119  001866                     i2u488_40:
  8120  001866                     
  8121                           ;the3.c: 319:   {;the3.c: 320:     ledIndex = 6;
  8122  001866  0E06               	movlw	6
  8123  001868  6E1D               	movwf	_ledIndex^0,c
  8124                           
  8125                           ;the3.c: 321:   }
  8126  00186A  EF0E  F00D         	goto	i2l3624
  8127  00186E                     i2l3572:
  8128  00186E  0EC0               	movlw	192
  8129  001870  5C28               	subwf	ADCtoLCD@adcVal^0,w,c
  8130  001872  0E01               	movlw	1
  8131  001874  5829               	subwfb	(ADCtoLCD@adcVal+1)^0,w,c
  8132  001876  A0D8               	btfss	status,0,c
  8133  001878  EF40  F00C         	goto	i2u489_41
  8134  00187C  EF42  F00C         	goto	i2u489_40
  8135  001880                     i2u489_41:
  8136  001880  EF4F  F00C         	goto	i2l3578
  8137  001884                     i2u489_40:
  8138  001884  0E02               	movlw	2
  8139  001886  5C29               	subwf	(ADCtoLCD@adcVal+1)^0,w,c
  8140  001888  B0D8               	btfsc	status,0,c
  8141  00188A  EF49  F00C         	goto	i2u490_41
  8142  00188E  EF4B  F00C         	goto	i2u490_40
  8143  001892                     i2u490_41:
  8144  001892  EF4F  F00C         	goto	i2l3578
  8145  001896                     i2u490_40:
  8146  001896                     
  8147                           ;the3.c: 323:   {;the3.c: 324:     ledIndex = 7;
  8148  001896  0E07               	movlw	7
  8149  001898  6E1D               	movwf	_ledIndex^0,c
  8150                           
  8151                           ;the3.c: 325:   }
  8152  00189A  EF0E  F00D         	goto	i2l3624
  8153  00189E                     i2l3578:
  8154  00189E  0E02               	movlw	2
  8155  0018A0  5C29               	subwf	(ADCtoLCD@adcVal+1)^0,w,c
  8156  0018A2  A0D8               	btfss	status,0,c
  8157  0018A4  EF56  F00C         	goto	i2u491_41
  8158  0018A8  EF58  F00C         	goto	i2u491_40
  8159  0018AC                     i2u491_41:
  8160  0018AC  EF67  F00C         	goto	i2l3584
  8161  0018B0                     i2u491_40:
  8162  0018B0  0E40               	movlw	64
  8163  0018B2  5C28               	subwf	ADCtoLCD@adcVal^0,w,c
  8164  0018B4  0E02               	movlw	2
  8165  0018B6  5829               	subwfb	(ADCtoLCD@adcVal+1)^0,w,c
  8166  0018B8  B0D8               	btfsc	status,0,c
  8167  0018BA  EF61  F00C         	goto	i2u492_41
  8168  0018BE  EF63  F00C         	goto	i2u492_40
  8169  0018C2                     i2u492_41:
  8170  0018C2  EF67  F00C         	goto	i2l3584
  8171  0018C6                     i2u492_40:
  8172  0018C6                     
  8173                           ;the3.c: 327:   {;the3.c: 328:     ledIndex = 8;
  8174  0018C6  0E08               	movlw	8
  8175  0018C8  6E1D               	movwf	_ledIndex^0,c
  8176                           
  8177                           ;the3.c: 329:   }
  8178  0018CA  EF0E  F00D         	goto	i2l3624
  8179  0018CE                     i2l3584:
  8180  0018CE  0E40               	movlw	64
  8181  0018D0  5C28               	subwf	ADCtoLCD@adcVal^0,w,c
  8182  0018D2  0E02               	movlw	2
  8183  0018D4  5829               	subwfb	(ADCtoLCD@adcVal+1)^0,w,c
  8184  0018D6  A0D8               	btfss	status,0,c
  8185  0018D8  EF70  F00C         	goto	i2u493_41
  8186  0018DC  EF72  F00C         	goto	i2u493_40
  8187  0018E0                     i2u493_41:
  8188  0018E0  EF81  F00C         	goto	i2l3590
  8189  0018E4                     i2u493_40:
  8190  0018E4  0E80               	movlw	128
  8191  0018E6  5C28               	subwf	ADCtoLCD@adcVal^0,w,c
  8192  0018E8  0E02               	movlw	2
  8193  0018EA  5829               	subwfb	(ADCtoLCD@adcVal+1)^0,w,c
  8194  0018EC  B0D8               	btfsc	status,0,c
  8195  0018EE  EF7B  F00C         	goto	i2u494_41
  8196  0018F2  EF7D  F00C         	goto	i2u494_40
  8197  0018F6                     i2u494_41:
  8198  0018F6  EF81  F00C         	goto	i2l3590
  8199  0018FA                     i2u494_40:
  8200  0018FA                     
  8201                           ;the3.c: 331:   {;the3.c: 332:     ledIndex = 9;
  8202  0018FA  0E09               	movlw	9
  8203  0018FC  6E1D               	movwf	_ledIndex^0,c
  8204                           
  8205                           ;the3.c: 333:   }
  8206  0018FE  EF0E  F00D         	goto	i2l3624
  8207  001902                     i2l3590:
  8208  001902  0E80               	movlw	128
  8209  001904  5C28               	subwf	ADCtoLCD@adcVal^0,w,c
  8210  001906  0E02               	movlw	2
  8211  001908  5829               	subwfb	(ADCtoLCD@adcVal+1)^0,w,c
  8212  00190A  A0D8               	btfss	status,0,c
  8213  00190C  EF8A  F00C         	goto	i2u495_41
  8214  001910  EF8C  F00C         	goto	i2u495_40
  8215  001914                     i2u495_41:
  8216  001914  EF9B  F00C         	goto	i2l3596
  8217  001918                     i2u495_40:
  8218  001918  0EC0               	movlw	192
  8219  00191A  5C28               	subwf	ADCtoLCD@adcVal^0,w,c
  8220  00191C  0E02               	movlw	2
  8221  00191E  5829               	subwfb	(ADCtoLCD@adcVal+1)^0,w,c
  8222  001920  B0D8               	btfsc	status,0,c
  8223  001922  EF95  F00C         	goto	i2u496_41
  8224  001926  EF97  F00C         	goto	i2u496_40
  8225  00192A                     i2u496_41:
  8226  00192A  EF9B  F00C         	goto	i2l3596
  8227  00192E                     i2u496_40:
  8228  00192E                     
  8229                           ;the3.c: 335:   {;the3.c: 336:     ledIndex = 10;
  8230  00192E  0E0A               	movlw	10
  8231  001930  6E1D               	movwf	_ledIndex^0,c
  8232                           
  8233                           ;the3.c: 337:   }
  8234  001932  EF0E  F00D         	goto	i2l3624
  8235  001936                     i2l3596:
  8236  001936  0EC0               	movlw	192
  8237  001938  5C28               	subwf	ADCtoLCD@adcVal^0,w,c
  8238  00193A  0E02               	movlw	2
  8239  00193C  5829               	subwfb	(ADCtoLCD@adcVal+1)^0,w,c
  8240  00193E  A0D8               	btfss	status,0,c
  8241  001940  EFA4  F00C         	goto	i2u497_41
  8242  001944  EFA6  F00C         	goto	i2u497_40
  8243  001948                     i2u497_41:
  8244  001948  EFB3  F00C         	goto	i2l3602
  8245  00194C                     i2u497_40:
  8246  00194C  0E03               	movlw	3
  8247  00194E  5C29               	subwf	(ADCtoLCD@adcVal+1)^0,w,c
  8248  001950  B0D8               	btfsc	status,0,c
  8249  001952  EFAD  F00C         	goto	i2u498_41
  8250  001956  EFAF  F00C         	goto	i2u498_40
  8251  00195A                     i2u498_41:
  8252  00195A  EFB3  F00C         	goto	i2l3602
  8253  00195E                     i2u498_40:
  8254  00195E                     
  8255                           ;the3.c: 339:   {;the3.c: 340:     ledIndex = 11;
  8256  00195E  0E0B               	movlw	11
  8257  001960  6E1D               	movwf	_ledIndex^0,c
  8258                           
  8259                           ;the3.c: 341:   }
  8260  001962  EF0E  F00D         	goto	i2l3624
  8261  001966                     i2l3602:
  8262  001966  0E03               	movlw	3
  8263  001968  5C29               	subwf	(ADCtoLCD@adcVal+1)^0,w,c
  8264  00196A  A0D8               	btfss	status,0,c
  8265  00196C  EFBA  F00C         	goto	i2u499_41
  8266  001970  EFBC  F00C         	goto	i2u499_40
  8267  001974                     i2u499_41:
  8268  001974  EFCB  F00C         	goto	i2l3608
  8269  001978                     i2u499_40:
  8270  001978  0E40               	movlw	64
  8271  00197A  5C28               	subwf	ADCtoLCD@adcVal^0,w,c
  8272  00197C  0E03               	movlw	3
  8273  00197E  5829               	subwfb	(ADCtoLCD@adcVal+1)^0,w,c
  8274  001980  B0D8               	btfsc	status,0,c
  8275  001982  EFC5  F00C         	goto	i2u500_41
  8276  001986  EFC7  F00C         	goto	i2u500_40
  8277  00198A                     i2u500_41:
  8278  00198A  EFCB  F00C         	goto	i2l3608
  8279  00198E                     i2u500_40:
  8280  00198E                     
  8281                           ;the3.c: 343:   {;the3.c: 344:     ledIndex = 12;
  8282  00198E  0E0C               	movlw	12
  8283  001990  6E1D               	movwf	_ledIndex^0,c
  8284                           
  8285                           ;the3.c: 345:   }
  8286  001992  EF0E  F00D         	goto	i2l3624
  8287  001996                     i2l3608:
  8288  001996  0E40               	movlw	64
  8289  001998  5C28               	subwf	ADCtoLCD@adcVal^0,w,c
  8290  00199A  0E03               	movlw	3
  8291  00199C  5829               	subwfb	(ADCtoLCD@adcVal+1)^0,w,c
  8292  00199E  A0D8               	btfss	status,0,c
  8293  0019A0  EFD4  F00C         	goto	i2u501_41
  8294  0019A4  EFD6  F00C         	goto	i2u501_40
  8295  0019A8                     i2u501_41:
  8296  0019A8  EFE5  F00C         	goto	i2l3614
  8297  0019AC                     i2u501_40:
  8298  0019AC  0E80               	movlw	128
  8299  0019AE  5C28               	subwf	ADCtoLCD@adcVal^0,w,c
  8300  0019B0  0E03               	movlw	3
  8301  0019B2  5829               	subwfb	(ADCtoLCD@adcVal+1)^0,w,c
  8302  0019B4  B0D8               	btfsc	status,0,c
  8303  0019B6  EFDF  F00C         	goto	i2u502_41
  8304  0019BA  EFE1  F00C         	goto	i2u502_40
  8305  0019BE                     i2u502_41:
  8306  0019BE  EFE5  F00C         	goto	i2l3614
  8307  0019C2                     i2u502_40:
  8308  0019C2                     
  8309                           ;the3.c: 347:   {;the3.c: 348:     ledIndex = 13;
  8310  0019C2  0E0D               	movlw	13
  8311  0019C4  6E1D               	movwf	_ledIndex^0,c
  8312                           
  8313                           ;the3.c: 349:   }
  8314  0019C6  EF0E  F00D         	goto	i2l3624
  8315  0019CA                     i2l3614:
  8316  0019CA  0E80               	movlw	128
  8317  0019CC  5C28               	subwf	ADCtoLCD@adcVal^0,w,c
  8318  0019CE  0E03               	movlw	3
  8319  0019D0  5829               	subwfb	(ADCtoLCD@adcVal+1)^0,w,c
  8320  0019D2  A0D8               	btfss	status,0,c
  8321  0019D4  EFEE  F00C         	goto	i2u503_41
  8322  0019D8  EFF0  F00C         	goto	i2u503_40
  8323  0019DC                     i2u503_41:
  8324  0019DC  EFFF  F00C         	goto	i2l3620
  8325  0019E0                     i2u503_40:
  8326  0019E0  0EC0               	movlw	192
  8327  0019E2  5C28               	subwf	ADCtoLCD@adcVal^0,w,c
  8328  0019E4  0E03               	movlw	3
  8329  0019E6  5829               	subwfb	(ADCtoLCD@adcVal+1)^0,w,c
  8330  0019E8  B0D8               	btfsc	status,0,c
  8331  0019EA  EFF9  F00C         	goto	i2u504_41
  8332  0019EE  EFFB  F00C         	goto	i2u504_40
  8333  0019F2                     i2u504_41:
  8334  0019F2  EFFF  F00C         	goto	i2l3620
  8335  0019F6                     i2u504_40:
  8336  0019F6                     
  8337                           ;the3.c: 351:   {;the3.c: 352:     ledIndex = 14;
  8338  0019F6  0E0E               	movlw	14
  8339  0019F8  6E1D               	movwf	_ledIndex^0,c
  8340                           
  8341                           ;the3.c: 353:   }
  8342  0019FA  EF0E  F00D         	goto	i2l3624
  8343  0019FE                     i2l3620:
  8344  0019FE  0EC0               	movlw	192
  8345  001A00  5C28               	subwf	ADCtoLCD@adcVal^0,w,c
  8346  001A02  0E03               	movlw	3
  8347  001A04  5829               	subwfb	(ADCtoLCD@adcVal+1)^0,w,c
  8348  001A06  A0D8               	btfss	status,0,c
  8349  001A08  EF08  F00D         	goto	i2u505_41
  8350  001A0C  EF0A  F00D         	goto	i2u505_40
  8351  001A10                     i2u505_41:
  8352  001A10  EF0E  F00D         	goto	i2l305
  8353  001A14                     i2u505_40:
  8354  001A14                     
  8355                           ;the3.c: 355:   {;the3.c: 356:     ledIndex = 15;
  8356  001A14  0E0F               	movlw	15
  8357  001A16  6E1D               	movwf	_ledIndex^0,c
  8358  001A18  EF0E  F00D         	goto	i2l3624
  8359  001A1C                     i2l305:
  8360  001A1C                     i2l3624:
  8361                           
  8362                           ;the3.c: 358:   if (ledIndex > currentLedIndex)
  8363  001A1C  501D               	movf	_ledIndex^0,w,c
  8364  001A1E  6E2A               	movwf	??_ADCtoLCD^0,c
  8365  001A20  6A2B               	clrf	(??_ADCtoLCD+1)^0,c
  8366  001A22  502A               	movf	??_ADCtoLCD^0,w,c
  8367  001A24  5C11               	subwf	_currentLedIndex^0,w,c
  8368  001A26  5012               	movf	(_currentLedIndex+1)^0,w,c
  8369  001A28  0A80               	xorlw	128
  8370  001A2A  6E2C               	movwf	(??_ADCtoLCD+2)^0,c
  8371  001A2C  502B               	movf	(??_ADCtoLCD+1)^0,w,c
  8372  001A2E  0A80               	xorlw	128
  8373  001A30  582C               	subwfb	(??_ADCtoLCD+2)^0,w,c
  8374  001A32  B0D8               	btfsc	status,0,c
  8375  001A34  EF1E  F00D         	goto	i2u506_41
  8376  001A38  EF20  F00D         	goto	i2u506_40
  8377  001A3C                     i2u506_41:
  8378  001A3C  EF46  F00D         	goto	i2l3634
  8379  001A40                     i2u506_40:
  8380  001A40                     
  8381                           ;the3.c: 359:   {;the3.c: 360:     for (int i = 0; i < ledIndex - currentLedIndex; i++)
  8382  001A40  0E00               	movlw	0
  8383  001A42  6E2E               	movwf	(ADCtoLCD@i+1)^0,c
  8384  001A44  0E00               	movlw	0
  8385  001A46  6E2D               	movwf	ADCtoLCD@i^0,c
  8386  001A48  EF2B  F00D         	goto	i2l3632
  8387  001A4C                     i2l3628:
  8388                           
  8389                           ;the3.c: 361:     {;the3.c: 362:       LcdCmd(0b00010100);
  8390  001A4C  0E14               	movlw	20
  8391  001A4E  EC21  F015         	call	i2_LcdCmd
  8392  001A52                     
  8393                           ;the3.c: 363:     }
  8394  001A52  4A2D               	infsnz	ADCtoLCD@i^0,f,c
  8395  001A54  2A2E               	incf	(ADCtoLCD@i+1)^0,f,c
  8396  001A56                     i2l3632:
  8397  001A56  501D               	movf	_ledIndex^0,w,c
  8398  001A58  6E2A               	movwf	??_ADCtoLCD^0,c
  8399  001A5A  6A2B               	clrf	(??_ADCtoLCD+1)^0,c
  8400  001A5C  5011               	movf	_currentLedIndex^0,w,c
  8401  001A5E  5E2A               	subwf	??_ADCtoLCD^0,f,c
  8402  001A60  5012               	movf	(_currentLedIndex+1)^0,w,c
  8403  001A62  5A2B               	subwfb	(??_ADCtoLCD+1)^0,f,c
  8404  001A64  502A               	movf	??_ADCtoLCD^0,w,c
  8405  001A66  5C2D               	subwf	ADCtoLCD@i^0,w,c
  8406  001A68  502E               	movf	(ADCtoLCD@i+1)^0,w,c
  8407  001A6A  0A80               	xorlw	128
  8408  001A6C  6E2C               	movwf	(??_ADCtoLCD+2)^0,c
  8409  001A6E  502B               	movf	(??_ADCtoLCD+1)^0,w,c
  8410  001A70  0A80               	xorlw	128
  8411  001A72  582C               	subwfb	(??_ADCtoLCD+2)^0,w,c
  8412  001A74  A0D8               	btfss	status,0,c
  8413  001A76  EF3F  F00D         	goto	i2u507_41
  8414  001A7A  EF41  F00D         	goto	i2u507_40
  8415  001A7E                     i2u507_41:
  8416  001A7E  EF26  F00D         	goto	i2l3628
  8417  001A82                     i2u507_40:
  8418  001A82                     i2l314:
  8419                           
  8420                           ;the3.c: 364:     currentLedIndex = ledIndex;
  8421  001A82  C01D  F011         	movff	_ledIndex,_currentLedIndex
  8422  001A86  6A12               	clrf	(_currentLedIndex+1)^0,c
  8423                           
  8424                           ;the3.c: 365:   }
  8425  001A88  EF7A  F00D         	goto	i2l321
  8426  001A8C                     i2l3634:
  8427  001A8C  501D               	movf	_ledIndex^0,w,c
  8428  001A8E  6E2A               	movwf	??_ADCtoLCD^0,c
  8429  001A90  6A2B               	clrf	(??_ADCtoLCD+1)^0,c
  8430  001A92  5011               	movf	_currentLedIndex^0,w,c
  8431  001A94  5C2A               	subwf	??_ADCtoLCD^0,w,c
  8432  001A96  502B               	movf	(??_ADCtoLCD+1)^0,w,c
  8433  001A98  0A80               	xorlw	128
  8434  001A9A  6E2C               	movwf	(??_ADCtoLCD+2)^0,c
  8435  001A9C  5012               	movf	(_currentLedIndex+1)^0,w,c
  8436  001A9E  0A80               	xorlw	128
  8437  001AA0  582C               	subwfb	(??_ADCtoLCD+2)^0,w,c
  8438  001AA2  B0D8               	btfsc	status,0,c
  8439  001AA4  EF56  F00D         	goto	i2u508_41
  8440  001AA8  EF58  F00D         	goto	i2u508_40
  8441  001AAC                     i2u508_41:
  8442  001AAC  EF41  F00D         	goto	i2l314
  8443  001AB0                     i2u508_40:
  8444  001AB0                     
  8445                           ;the3.c: 367:   {;the3.c: 368:     for (int i = 0; i < currentLedIndex - ledIndex; i++)
  8446  001AB0  0E00               	movlw	0
  8447  001AB2  6E30               	movwf	(ADCtoLCD@i_725+1)^0,c
  8448  001AB4  0E00               	movlw	0
  8449  001AB6  6E2F               	movwf	ADCtoLCD@i_725^0,c
  8450  001AB8  EF63  F00D         	goto	i2l3642
  8451  001ABC                     i2l3638:
  8452                           
  8453                           ;the3.c: 369:     {;the3.c: 370:       LcdCmd(0b00010000);
  8454  001ABC  0E10               	movlw	16
  8455  001ABE  EC21  F015         	call	i2_LcdCmd
  8456  001AC2                     
  8457                           ;the3.c: 371:     }
  8458  001AC2  4A2F               	infsnz	ADCtoLCD@i_725^0,f,c
  8459  001AC4  2A30               	incf	(ADCtoLCD@i_725+1)^0,f,c
  8460  001AC6                     i2l3642:
  8461  001AC6  501D               	movf	_ledIndex^0,w,c
  8462  001AC8  5C11               	subwf	_currentLedIndex^0,w,c
  8463  001ACA  6E2A               	movwf	??_ADCtoLCD^0,c
  8464  001ACC  0E00               	movlw	0
  8465  001ACE  5812               	subwfb	(_currentLedIndex+1)^0,w,c
  8466  001AD0  6E2B               	movwf	(??_ADCtoLCD+1)^0,c
  8467  001AD2  502A               	movf	??_ADCtoLCD^0,w,c
  8468  001AD4  5C2F               	subwf	ADCtoLCD@i_725^0,w,c
  8469  001AD6  5030               	movf	(ADCtoLCD@i_725+1)^0,w,c
  8470  001AD8  0A80               	xorlw	128
  8471  001ADA  6E2C               	movwf	(??_ADCtoLCD+2)^0,c
  8472  001ADC  502B               	movf	(??_ADCtoLCD+1)^0,w,c
  8473  001ADE  0A80               	xorlw	128
  8474  001AE0  582C               	subwfb	(??_ADCtoLCD+2)^0,w,c
  8475  001AE2  A0D8               	btfss	status,0,c
  8476  001AE4  EF76  F00D         	goto	i2u509_41
  8477  001AE8  EF78  F00D         	goto	i2u509_40
  8478  001AEC                     i2u509_41:
  8479  001AEC  EF5E  F00D         	goto	i2l3638
  8480  001AF0                     i2u509_40:
  8481  001AF0  EF41  F00D         	goto	i2l314
  8482  001AF4                     i2l321:
  8483  001AF4  0012               	return		;funcret
  8484  001AF6                     __end_of_ADCtoLCD:
  8485                           	callstack 0
  8486                           
  8487 ;; *************** function i2_LcdCmd *****************
  8488 ;; Defined at:
  8489 ;;		line 34 in file "lcd.c"
  8490 ;; Parameters:    Size  Location     Type
  8491 ;;  cmd             1    wreg     unsigned char 
  8492 ;; Auto vars:     Size  Location     Type
  8493 ;;  cmd             1    0[COMRAM] unsigned char 
  8494 ;; Return value:  Size  Location     Type
  8495 ;;                  1    wreg      void 
  8496 ;; Registers used:
  8497 ;;		wreg, status,2, status,0, cstack
  8498 ;; Tracked objects:
  8499 ;;		On entry : 0/0
  8500 ;;		On exit  : 0/0
  8501 ;;		Unchanged: 0/0
  8502 ;; Data sizes:     COMRAM   BANK0   BANK1   BANK2   BANK3   BANK4   BANK5   BANK6   BANK7   BANK8   BANK9  BANK10  BANK1
      +1  BANK12  BANK13  BANK14  BANK15
  8503 ;;      Params:         0       0       0       0       0       0       0       0       0       0       0       0       
      +0       0       0       0       0
  8504 ;;      Locals:         1       0       0       0       0       0       0       0       0       0       0       0       
      +0       0       0       0       0
  8505 ;;      Temps:          0       0       0       0       0       0       0       0       0       0       0       0       
      +0       0       0       0       0
  8506 ;;      Totals:         1       0       0       0       0       0       0       0       0       0       0       0       
      +0       0       0       0       0
  8507 ;;Total ram usage:        1 bytes
  8508 ;; Hardware stack levels used:    1
  8509 ;; Hardware stack levels required when called:    1
  8510 ;; This function calls:
  8511 ;;		i2_Pulse
  8512 ;; This function is called by:
  8513 ;;		_ADCtoLCD
  8514 ;; This function uses a non-reentrant model
  8515 ;;
  8516                           
  8517                           	psect	text34
  8518  002A42                     __ptext34:
  8519                           	callstack 0
  8520  002A42                     i2_LcdCmd:
  8521                           	callstack 22
  8522                           
  8523                           ;incstack = 0
  8524                           ;i2LcdCmd@cmd stored from wreg
  8525  002A42  6E27               	movwf	i2LcdCmd@cmd^0,c
  8526  002A44                     
  8527                           ;lcd.c: 37:     LATB2 = 0;
  8528  002A44  948A               	bcf	3978,2,c	;volatile
  8529  002A46                     
  8530                           ;lcd.c: 40:     PORTD = PORTD & 0x0F;
  8531  002A46  5083               	movf	131,w,c	;volatile
  8532  002A48  0B0F               	andlw	15
  8533  002A4A  6E83               	movwf	131,c	;volatile
  8534                           
  8535                           ;lcd.c: 41:     PORTD = PORTD |(cmd & 0xF0);
  8536  002A4C  5027               	movf	i2LcdCmd@cmd^0,w,c
  8537  002A4E  0BF0               	andlw	240
  8538  002A50  1083               	iorwf	131,w,c	;volatile
  8539  002A52  6E83               	movwf	131,c	;volatile
  8540  002A54                     
  8541                           ;lcd.c: 43:     Pulse();
  8542  002A54  EC95  F015         	call	i2_Pulse	;wreg free
  8543  002A58                     
  8544                           ;lcd.c: 46:     PORTD = PORTD & 0x0F;
  8545  002A58  5083               	movf	131,w,c	;volatile
  8546  002A5A  0B0F               	andlw	15
  8547  002A5C  6E83               	movwf	131,c	;volatile
  8548  002A5E                     
  8549                           ;lcd.c: 47:     PORTD = PORTD | ((cmd << 4) & 0xF0);
  8550  002A5E  3827               	swapf	i2LcdCmd@cmd^0,w,c
  8551  002A60  0BF0               	andlw	240
  8552  002A62  0BF0               	andlw	240
  8553  002A64  1083               	iorwf	131,w,c	;volatile
  8554  002A66  6E83               	movwf	131,c	;volatile
  8555  002A68                     
  8556                           ;lcd.c: 49:     Pulse();
  8557  002A68  EC95  F015         	call	i2_Pulse	;wreg free
  8558  002A6C  0012               	return		;funcret
  8559  002A6E                     __end_ofi2_LcdCmd:
  8560                           	callstack 0
  8561                           
  8562 ;; *************** function i2_Pulse *****************
  8563 ;; Defined at:
  8564 ;;		line 5 in file "lcd.c"
  8565 ;; Parameters:    Size  Location     Type
  8566 ;;		None
  8567 ;; Auto vars:     Size  Location     Type
  8568 ;;		None
  8569 ;; Return value:  Size  Location     Type
  8570 ;;                  1    wreg      void 
  8571 ;; Registers used:
  8572 ;;		wreg
  8573 ;; Tracked objects:
  8574 ;;		On entry : 0/0
  8575 ;;		On exit  : 0/0
  8576 ;;		Unchanged: 0/0
  8577 ;; Data sizes:     COMRAM   BANK0   BANK1   BANK2   BANK3   BANK4   BANK5   BANK6   BANK7   BANK8   BANK9  BANK10  BANK1
      +1  BANK12  BANK13  BANK14  BANK15
  8578 ;;      Params:         0       0       0       0       0       0       0       0       0       0       0       0       
      +0       0       0       0       0
  8579 ;;      Locals:         0       0       0       0       0       0       0       0       0       0       0       0       
      +0       0       0       0       0
  8580 ;;      Temps:          0       0       0       0       0       0       0       0       0       0       0       0       
      +0       0       0       0       0
  8581 ;;      Totals:         0       0       0       0       0       0       0       0       0       0       0       0       
      +0       0       0       0       0
  8582 ;;Total ram usage:        0 bytes
  8583 ;; Hardware stack levels used:    1
  8584 ;; This function calls:
  8585 ;;		Nothing
  8586 ;; This function is called by:
  8587 ;;		i2_LcdCmd
  8588 ;; This function uses a non-reentrant model
  8589 ;;
  8590                           
  8591                           	psect	text35
  8592  002B2A                     __ptext35:
  8593                           	callstack 0
  8594  002B2A                     i2_Pulse:
  8595                           	callstack 22
  8596  002B2A                     
  8597                           ;lcd.c: 6:     LATB5 = 1;
  8598  002B2A  8A8A               	bsf	3978,5,c	;volatile
  8599  002B2C                     
  8600                           ;lcd.c: 7:     _delay((unsigned long)((30)*(40000000/4000000.0)));
  8601  002B2C  0E64               	movlw	100
  8602  002B2E                     i2u811_47:
  8603  002B2E  2EE8               	decfsz	wreg,f,c
  8604  002B30  D7FE               	bra	i2u811_47
  8605  002B32                     
  8606                           ;lcd.c: 8:     LATB5 = 0;
  8607  002B32  9A8A               	bcf	3978,5,c	;volatile
  8608                           
  8609                           ;lcd.c: 9:     _delay((unsigned long)((30)*(40000000/4000000.0)));
  8610  002B34  0E64               	movlw	100
  8611  002B36                     i2u812_47:
  8612  002B36  2EE8               	decfsz	wreg,f,c
  8613  002B38  D7FE               	bra	i2u812_47
  8614  002B3A  0012               	return		;funcret
  8615  002B3C                     __end_ofi2_Pulse:
  8616                           	callstack 0
  8617  0000                     
  8618                           	psect	rparam
  8619  0000                     
  8620                           	psect	temp
  8621  000050                     btemp:
  8622                           	callstack 0
  8623  000050                     	ds	1
  8624  0000                     int$flags	set	btemp
  8625  0000                     wtemp8	set	btemp+1
  8626  0000                     ttemp5	set	btemp+1
  8627  0000                     ttemp6	set	btemp+4
  8628  0000                     ttemp7	set	btemp+8
  8629                           
  8630                           	psect	idloc
  8631                           
  8632                           ;Config register IDLOC0 @ 0x200000
  8633                           ;	unspecified, using default values
  8634  200000                     	org	2097152
  8635  200000  FF                 	db	255
  8636                           
  8637                           ;Config register IDLOC1 @ 0x200001
  8638                           ;	unspecified, using default values
  8639  200001                     	org	2097153
  8640  200001  FF                 	db	255
  8641                           
  8642                           ;Config register IDLOC2 @ 0x200002
  8643                           ;	unspecified, using default values
  8644  200002                     	org	2097154
  8645  200002  FF                 	db	255
  8646                           
  8647                           ;Config register IDLOC3 @ 0x200003
  8648                           ;	unspecified, using default values
  8649  200003                     	org	2097155
  8650  200003  FF                 	db	255
  8651                           
  8652                           ;Config register IDLOC4 @ 0x200004
  8653                           ;	unspecified, using default values
  8654  200004                     	org	2097156
  8655  200004  FF                 	db	255
  8656                           
  8657                           ;Config register IDLOC5 @ 0x200005
  8658                           ;	unspecified, using default values
  8659  200005                     	org	2097157
  8660  200005  FF                 	db	255
  8661                           
  8662                           ;Config register IDLOC6 @ 0x200006
  8663                           ;	unspecified, using default values
  8664  200006                     	org	2097158
  8665  200006  FF                 	db	255
  8666                           
  8667                           ;Config register IDLOC7 @ 0x200007
  8668                           ;	unspecified, using default values
  8669  200007                     	org	2097159
  8670  200007  FF                 	db	255
  8671                           
  8672                           	psect	config
  8673                           
  8674                           ; Padding undefined space
  8675  300000                     	org	3145728
  8676  300000  FF                 	db	255
  8677                           
  8678                           ;Config register CONFIG1H @ 0x300001
  8679                           ;	Oscillator Selection bits
  8680                           ;	OSC = HSPLL, HS oscillator, PLL enabled (Clock Frequency = 4 x FOSC1)
  8681                           ;	Fail-Safe Clock Monitor Enable bit
  8682                           ;	FCMEN = OFF, Fail-Safe Clock Monitor disabled
  8683                           ;	Internal/External Oscillator Switchover bit
  8684                           ;	IESO = OFF, Two-Speed Start-up disabled
  8685  300001                     	org	3145729
  8686  300001  06                 	db	6
  8687                           
  8688                           ;Config register CONFIG2L @ 0x300002
  8689                           ;	Power-up Timer Enable bit
  8690                           ;	PWRT = OFF, PWRT disabled
  8691                           ;	Brown-out Reset Enable bits
  8692                           ;	BOREN = OFF, Brown-out Reset disabled in hardware and software
  8693                           ;	Brown-out Voltage bits
  8694                           ;	BORV = 3, Minimum setting
  8695  300002                     	org	3145730
  8696  300002  19                 	db	25
  8697                           
  8698                           ;Config register CONFIG2H @ 0x300003
  8699                           ;	Watchdog Timer
  8700                           ;	WDT = OFF, WDT disabled (control is placed on the SWDTEN bit)
  8701                           ;	Watchdog Timer Postscale Select bits
  8702                           ;	WDTPS = 32768, 1:32768
  8703  300003                     	org	3145731
  8704  300003  1E                 	db	30
  8705                           
  8706                           ;Config register CONFIG3L @ 0x300004
  8707                           ;	Processor Data Memory Mode Select bits
  8708                           ;	MODE = MC, Microcontroller mode
  8709                           ;	Address Bus Width Select bits
  8710                           ;	ADDRBW = ADDR20BIT, 20-bit Address Bus
  8711                           ;	Data Bus Width Select bit
  8712                           ;	DATABW = DATA16BIT, 16-bit External Bus mode
  8713                           ;	External Bus Data Wait Enable bit
  8714                           ;	WAIT = OFF, Wait selections are unavailable for table reads and table writes
  8715  300004                     	org	3145732
  8716  300004  F3                 	db	243
  8717                           
  8718                           ;Config register CONFIG3H @ 0x300005
  8719                           ;	CCP2 MUX bit
  8720                           ;	CCP2MX = PORTC, ECCP2 input/output is multiplexed with RC1
  8721                           ;	ECCP MUX bit
  8722                           ;	ECCPMX = PORTE, ECCP1/3 (P1B/P1C/P3B/P3C) are multiplexed onto RE6, RE5, RE4 and RE3 r
      +                          espectively
  8723                           ;	Low-Power Timer1 Oscillator Enable bit
  8724                           ;	LPT1OSC = OFF, Timer1 configured for higher power operation
  8725                           ;	MCLR Pin Enable bit
  8726                           ;	MCLRE = ON, MCLR pin enabled; RG5 input pin disabled
  8727  300005                     	org	3145733
  8728  300005  83                 	db	131
  8729                           
  8730                           ;Config register CONFIG4L @ 0x300006
  8731                           ;	Stack Full/Underflow Reset Enable bit
  8732                           ;	STVREN = ON, Stack full/underflow will cause Reset
  8733                           ;	Single-Supply ICSP Enable bit
  8734                           ;	LVP = OFF, Single-Supply ICSP disabled
  8735                           ;	Boot Block Size Select bits
  8736                           ;	BBSIZ = BB2K, 1K word (2 Kbytes) Boot Block size
  8737                           ;	Extended Instruction Set Enable bit
  8738                           ;	XINST = OFF, Instruction set extension and Indexed Addressing mode disabled (Legacy mo
      +                          de)
  8739                           ;	Background Debugger Enable bit
  8740                           ;	DEBUG = ON, Background debugger enabled, RB6 and RB7 are dedicated to In-Circuit Debug
  8741  300006                     	org	3145734
  8742  300006  01                 	db	1
  8743                           
  8744                           ; Padding undefined space
  8745  300007                     	org	3145735
  8746  300007  FF                 	db	255
  8747                           
  8748                           ;Config register CONFIG5L @ 0x300008
  8749                           ;	Code Protection bit Block 0
  8750                           ;	CP0 = OFF, Block 0 (000800, 001000 or 002000-003FFFh) not code-protected
  8751                           ;	Code Protection bit Block 1
  8752                           ;	CP1 = OFF, Block 1 (004000-007FFFh) not code-protected
  8753                           ;	Code Protection bit Block 2
  8754                           ;	CP2 = OFF, Block 2 (008000-00BFFFh) not code-protected
  8755                           ;	Code Protection bit Block 3
  8756                           ;	CP3 = OFF, Block 3 (00C000-00FFFFh) not code-protected
  8757                           ;	Code Protection bit Block 4
  8758                           ;	CP4 = OFF, Block 4 (010000-013FFFh) not code-protected
  8759                           ;	Code Protection bit Block 5
  8760                           ;	CP5 = OFF, Block 5 (014000-017FFFh) not code-protected
  8761                           ;	Code Protection bit Block 6
  8762                           ;	CP6 = OFF, Block 6 (01BFFF-018000h) not code-protected
  8763                           ;	Code Protection bit Block 7
  8764                           ;	CP7 = OFF, Block 7 (01C000-01FFFFh) not code-protected
  8765  300008                     	org	3145736
  8766  300008  FF                 	db	255
  8767                           
  8768                           ;Config register CONFIG5H @ 0x300009
  8769                           ;	Boot Block Code Protection bit
  8770                           ;	CPB = OFF, Boot Block (000000-0007FFh) not code-protected
  8771                           ;	Data EEPROM Code Protection bit
  8772                           ;	CPD = OFF, Data EEPROM not code-protected
  8773  300009                     	org	3145737
  8774  300009  C0                 	db	192
  8775                           
  8776                           ;Config register CONFIG6L @ 0x30000A
  8777                           ;	Write Protection bit Block 0
  8778                           ;	WRT0 = OFF, Block 0 (000800, 001000 or 002000-003FFFh) not write-protected
  8779                           ;	Write Protection bit Block 1
  8780                           ;	WRT1 = OFF, Block 1 (004000-007FFFh) not write-protected
  8781                           ;	Write Protection bit Block 2
  8782                           ;	WRT2 = OFF, Block 2 (008000-00BFFFh) not write-protected
  8783                           ;	Write Protection bit Block 3
  8784                           ;	WRT3 = OFF, Block 3 (00C000-00FFFFh) not write-protected
  8785                           ;	Write Protection bit Block 4
  8786                           ;	WRT4 = OFF, Block 4 (010000-013FFFh) not write-protected
  8787                           ;	Write Protection bit Block 5
  8788                           ;	WRT5 = OFF, Block 5 (014000-017FFFh) not write-protected
  8789                           ;	Write Protection bit Block 6
  8790                           ;	WRT6 = OFF, Block 6 (01BFFF-018000h) not write-protected
  8791                           ;	Write Protection bit Block 7
  8792                           ;	WRT7 = OFF, Block 7 (01C000-01FFFFh) not write-protected
  8793  30000A                     	org	3145738
  8794  30000A  FF                 	db	255
  8795                           
  8796                           ;Config register CONFIG6H @ 0x30000B
  8797                           ;	Configuration Register Write Protection bit
  8798                           ;	WRTC = OFF, Configuration registers (300000-3000FFh) not write-protected
  8799                           ;	Boot Block Write Protection bit
  8800                           ;	WRTB = OFF, Boot Block (000000-007FFF, 000FFF or 001FFFh) not write-protected
  8801                           ;	Data EEPROM Write Protection bit
  8802                           ;	WRTD = OFF, Data EEPROM not write-protected
  8803  30000B                     	org	3145739
  8804  30000B  E0                 	db	224
  8805                           
  8806                           ;Config register CONFIG7L @ 0x30000C
  8807                           ;	Table Read Protection bit Block 0
  8808                           ;	EBTR0 = OFF, Block 0 (000800, 001000 or 002000-003FFFh) not protected from table reads
      +                           executed in other blocks
  8809                           ;	Table Read Protection bit Block 1
  8810                           ;	EBTR1 = OFF, Block 1 (004000-007FFFh) not protected from table reads executed in other
      +                           blocks
  8811                           ;	Table Read Protection bit Block 2
  8812                           ;	EBTR2 = OFF, Block 2 (008000-00BFFFh) not protected from table reads executed in other
      +                           blocks
  8813                           ;	Table Read Protection bit Block 3
  8814                           ;	EBTR3 = OFF, Block 3 (00C000-00FFFFh) not protected from table reads executed in other
      +                           blocks
  8815                           ;	Table Read Protection bit Block 4
  8816                           ;	EBTR4 = OFF, Block 4 (010000-013FFFh) not protected from table reads executed in other
      +                           blocks
  8817                           ;	Table Read Protection bit Block 5
  8818                           ;	EBTR5 = OFF, Block 5 (014000-017FFFh) not protected from table reads executed in other
      +                           blocks
  8819                           ;	Table Read Protection bit Block 6
  8820                           ;	EBTR6 = OFF, Block 6 (018000-01BFFFh) not protected from table reads executed in other
      +                           blocks
  8821                           ;	Table Read Protection bit Block 7
  8822                           ;	EBTR7 = OFF, Block 7 (01C000-01FFFFh) not protected from table reads executed in other
      +                           blocks
  8823  30000C                     	org	3145740
  8824  30000C  FF                 	db	255
  8825                           
  8826                           ;Config register CONFIG7H @ 0x30000D
  8827                           ;	Boot Block Table Read Protection bit
  8828                           ;	EBTRB = OFF, Boot Block (000000-007FFF, 000FFF or 001FFFh) not protected from table re
      +                          ads executed in other blocks
  8829  30000D                     	org	3145741
  8830  30000D  40                 	db	64
  8831                           tosu	equ	0xFFF
  8832                           tosh	equ	0xFFE
  8833                           tosl	equ	0xFFD
  8834                           stkptr	equ	0xFFC
  8835                           pclatu	equ	0xFFB
  8836                           pclath	equ	0xFFA
  8837                           pcl	equ	0xFF9
  8838                           tblptru	equ	0xFF8
  8839                           tblptrh	equ	0xFF7
  8840                           tblptrl	equ	0xFF6
  8841                           tablat	equ	0xFF5
  8842                           prodh	equ	0xFF4
  8843                           prodl	equ	0xFF3
  8844                           indf0	equ	0xFEF
  8845                           postinc0	equ	0xFEE
  8846                           postdec0	equ	0xFED
  8847                           preinc0	equ	0xFEC
  8848                           plusw0	equ	0xFEB
  8849                           fsr0h	equ	0xFEA
  8850                           fsr0l	equ	0xFE9
  8851                           wreg	equ	0xFE8
  8852                           indf1	equ	0xFE7
  8853                           postinc1	equ	0xFE6
  8854                           postdec1	equ	0xFE5
  8855                           preinc1	equ	0xFE4
  8856                           plusw1	equ	0xFE3
  8857                           fsr1h	equ	0xFE2
  8858                           fsr1l	equ	0xFE1
  8859                           bsr	equ	0xFE0
  8860                           indf2	equ	0xFDF
  8861                           postinc2	equ	0xFDE
  8862                           postdec2	equ	0xFDD
  8863                           preinc2	equ	0xFDC
  8864                           plusw2	equ	0xFDB
  8865                           fsr2h	equ	0xFDA
  8866                           fsr2l	equ	0xFD9
  8867                           status	equ	0xFD8

Data Sizes:
    Strings     0
    Constant    0
    Data        126
    BSS         102
    Persistent  0
    Stack       0

Auto Spaces:
    Space          Size  Autos    Used
    COMRAM           94     33      79
    BANK0           160      0     150
    BANK1           256     16      48
    BANK2           256      0       0
    BANK3           256      0       0
    BANK4           256      0       0
    BANK5           256      0       0
    BANK6           256      0       0
    BANK7           256      0       0
    BANK8           256      0       0
    BANK9           256      0       0
    BANK10          256      0       0
    BANK11          256      0       0
    BANK12          256      0       0
    BANK13          256      0       0
    BANK14          256      0       0
    BANK15           96      0       0

Pointer List with Targets:

    sp__leftRotateArray	PTR int  size(2) Largest target is 32
		 -> customArrayInfo(BANK0[32]), 

    leftRotateArray@customArrayInfo	PTR int  size(2) Largest target is 32
		 -> customArrayInfo(BANK0[32]), 

    sp__leftRotate	PTR unsigned char  size(2) Largest target is 16
		 -> lcdChars(BANK0[16]), 

    leftRotate@lcdChars	PTR unsigned char  size(2) Largest target is 16
		 -> lcdChars(BANK0[16]), 


Critical Paths under _main in COMRAM

    _main->_TSM
    _init_CDM_mode->_InitLCD
    _init->_InitLCD
    _InitLCD->_LcdClear
    _LcdClear->_LcdCmd
    _TSM->_leftRotateArray
    _TEMpressCheck->_customChange
    _CDMpressCheck->_modeChange
    _modeChange->_LcdCmd
    _modeChange->_LcdData
    _LCDdisplay->_LcdCmd
    _LCDdisplay->_LcdData
    _CDM->_CMDledTask

Critical Paths under _isr in COMRAM

    _isr->_ADCtoLCD
    _ADCtoLCD->i2_LcdCmd

Critical Paths under _main in BANK0

    None.

Critical Paths under _isr in BANK0

    None.

Critical Paths under _main in BANK1

    _main->_CDM

Critical Paths under _isr in BANK1

    None.

Critical Paths under _main in BANK2

    None.

Critical Paths under _isr in BANK2

    None.

Critical Paths under _main in BANK3

    None.

Critical Paths under _isr in BANK3

    None.

Critical Paths under _main in BANK4

    None.

Critical Paths under _isr in BANK4

    None.

Critical Paths under _main in BANK5

    None.

Critical Paths under _isr in BANK5

    None.

Critical Paths under _main in BANK6

    None.

Critical Paths under _isr in BANK6

    None.

Critical Paths under _main in BANK7

    None.

Critical Paths under _isr in BANK7

    None.

Critical Paths under _main in BANK8

    None.

Critical Paths under _isr in BANK8

    None.

Critical Paths under _main in BANK9

    None.

Critical Paths under _isr in BANK9

    None.

Critical Paths under _main in BANK10

    None.

Critical Paths under _isr in BANK10

    None.

Critical Paths under _main in BANK11

    None.

Critical Paths under _isr in BANK11

    None.

Critical Paths under _main in BANK12

    None.

Critical Paths under _isr in BANK12

    None.

Critical Paths under _main in BANK13

    None.

Critical Paths under _isr in BANK13

    None.

Critical Paths under _main in BANK14

    None.

Critical Paths under _isr in BANK14

    None.

Critical Paths under _main in BANK15

    None.

Critical Paths under _isr in BANK15

    None.

Call Graph Tables:

 ---------------------------------------------------------------------------------
 (Depth) Function   	        Calls       Base Space   Used Autos Params    Refs
 ---------------------------------------------------------------------------------
 (0) _main                                                 0     0      0    7812
                                _CDM
                     _CDMcoordHelper
                      _CDMpressCheck
                      _TEMpressCheck
                                _TSM
                               _init
                      _init_CDM_mode
                           _init_irq
                         _init_ports
                         _input_task
                       _startRE0and3
                        _stopRE0and3
                          _tmr0_init
 ---------------------------------------------------------------------------------
 (1) _tmr0_init                                            0     0      0       0
 ---------------------------------------------------------------------------------
 (1) _stopRE0and3                                          0     0      0       0
 ---------------------------------------------------------------------------------
 (1) _init_ports                                           0     0      0       0
 ---------------------------------------------------------------------------------
 (1) _init_irq                                             0     0      0       0
 ---------------------------------------------------------------------------------
 (1) _init_CDM_mode                                        0     0      0     248
                            _InitLCD
                           _LcdClear
                             _LcdCmd
 ---------------------------------------------------------------------------------
 (1) _init                                                 4     4      0     384
                                             17 COMRAM     4     4      0
                            _InitLCD
                             _LcdCmd
 ---------------------------------------------------------------------------------
 (2) _InitLCD                                              2     2      0     124
                                             15 COMRAM     2     2      0
                           _LcdClear
                             _LcdCmd
                              _Pulse
 ---------------------------------------------------------------------------------
 (2) _LcdClear                                             2     2      0      62
                                             13 COMRAM     2     2      0
                             _LcdCmd
 ---------------------------------------------------------------------------------
 (1) _TSM                                                 11    11      0    1296
                                             22 COMRAM    11    11      0
                             _LcdCmd
                            _LcdData
                         _leftRotate
                    _leftRotateArray
                          _stopInput
 ---------------------------------------------------------------------------------
 (2) _stopInput                                            0     0      0       0
 ---------------------------------------------------------------------------------
 (2) _leftRotateArray                                     10     8      2     283
                                             12 COMRAM    10     8      2
 ---------------------------------------------------------------------------------
 (2) _leftRotate                                           7     5      2     283
                                             12 COMRAM     7     5      2
 ---------------------------------------------------------------------------------
 (1) _TEMpressCheck                                        0     0      0     632
                       _customChange
                         _modeChange
                   _predefinedChange
 ---------------------------------------------------------------------------------
 (2) _predefinedChange                                     0     0      0     124
                         _LCDdisplay
 ---------------------------------------------------------------------------------
 (2) _customChange                                         4     4      0     124
                                             13 COMRAM     4     4      0
                         _LCDdisplay
 ---------------------------------------------------------------------------------
 (1) _CDMpressCheck                                        0     0      0     384
                         _modeChange
 ---------------------------------------------------------------------------------
 (2) _modeChange                                           3     3      0     384
                                             13 COMRAM     3     3      0
                         _LCDdisplay
                             _LcdCmd
                            _LcdData
 ---------------------------------------------------------------------------------
 (3) _LCDdisplay                                           0     0      0     124
                             _LcdCmd
                            _LcdData
 ---------------------------------------------------------------------------------
 (1) _CDMcoordHelper                                       2     2      0       0
                                             12 COMRAM     2     2      0
 ---------------------------------------------------------------------------------
 (1) _CDM                                                 20    20      0    4868
                                             19 COMRAM     4     4      0
                                              0 BANK1     16    16      0
                         _CMDledTask
                             _LcdCmd
                            _LcdData
                         _input_task
                        _re4_pressed
                       _startRE0and3
 ---------------------------------------------------------------------------------
 (1) _startRE0and3                                         0     0      0       0
 ---------------------------------------------------------------------------------
 (2) _re4_pressed                                          2     0      2       0
                                             12 COMRAM     2     0      2
 ---------------------------------------------------------------------------------
 (1) _input_task                                           0     0      0       0
 ---------------------------------------------------------------------------------
 (2) _LcdData                                              1     1      0      62
                                             12 COMRAM     1     1      0
                              _Pulse
 ---------------------------------------------------------------------------------
 (2) _LcdCmd                                               1     1      0      62
                                             12 COMRAM     1     1      0
                              _Pulse
 ---------------------------------------------------------------------------------
 (3) _Pulse                                                0     0      0       0
 ---------------------------------------------------------------------------------
 (2) _CMDledTask                                           7     7      0    3952
                                             12 COMRAM     7     7      0
 ---------------------------------------------------------------------------------
 Estimated maximum stack depth 3
 ---------------------------------------------------------------------------------
 (Depth) Function   	        Calls       Base Space   Used Autos Params    Refs
 ---------------------------------------------------------------------------------
 (6) _isr                                                  2     2      0    1276
                                             10 COMRAM     2     2      0
                           _ADCtoLCD
                            ___awmod
       _set_custom_num_seven_segment
           _set_xCoord_seven_segment
           _set_yCoord_seven_segment
 ---------------------------------------------------------------------------------
 (7) _set_yCoord_seven_segment                             2     2      0       0
                                              0 COMRAM     2     2      0
 ---------------------------------------------------------------------------------
 (7) _set_xCoord_seven_segment                             2     2      0       0
                                              0 COMRAM     2     2      0
 ---------------------------------------------------------------------------------
 (7) _set_custom_num_seven_segment                         2     2      0       0
                                              0 COMRAM     2     2      0
 ---------------------------------------------------------------------------------
 (7) ___awmod                                              6     2      4     448
                                              0 COMRAM     6     2      4
 ---------------------------------------------------------------------------------
 (7) _ADCtoLCD                                             9     7      2     828
                                              1 COMRAM     9     7      2
                           i2_LcdCmd
 ---------------------------------------------------------------------------------
 (8) i2_LcdCmd                                             1     1      0      44
                                              0 COMRAM     1     1      0
                            i2_Pulse
 ---------------------------------------------------------------------------------
 (9) i2_Pulse                                              0     0      0       0
 ---------------------------------------------------------------------------------
 Estimated maximum stack depth 9
 ---------------------------------------------------------------------------------

 Call Graph Graphs:

 _main (ROOT)
   _CDM
     _CMDledTask
     _LcdCmd
       _Pulse
     _LcdData
       _Pulse
     _input_task
     _re4_pressed
     _startRE0and3
   _CDMcoordHelper
   _CDMpressCheck
     _modeChange
       _LCDdisplay
         _LcdCmd
           _Pulse
         _LcdData
           _Pulse
       _LcdCmd
         _Pulse
       _LcdData
         _Pulse
   _TEMpressCheck
     _customChange
       _LCDdisplay
         _LcdCmd
           _Pulse
         _LcdData
           _Pulse
     _modeChange
       _LCDdisplay
         _LcdCmd
           _Pulse
         _LcdData
           _Pulse
       _LcdCmd
         _Pulse
       _LcdData
         _Pulse
     _predefinedChange
       _LCDdisplay
         _LcdCmd
           _Pulse
         _LcdData
           _Pulse
   _TSM
     _LcdCmd
       _Pulse
     _LcdData
       _Pulse
     _leftRotate
     _leftRotateArray
     _stopInput
   _init
     _InitLCD
       _LcdClear
         _LcdCmd
           _Pulse
       _LcdCmd
         _Pulse
       _Pulse
     _LcdCmd
       _Pulse
   _init_CDM_mode
     _InitLCD
       _LcdClear
         _LcdCmd
           _Pulse
       _LcdCmd
         _Pulse
       _Pulse
     _LcdClear
       _LcdCmd
         _Pulse
     _LcdCmd
       _Pulse
   _init_irq
   _init_ports
   _input_task
   _startRE0and3
   _stopRE0and3
   _tmr0_init

 _isr (ROOT)
   _ADCtoLCD
     i2_LcdCmd
       i2_Pulse
   ___awmod
   _set_custom_num_seven_segment
   _set_xCoord_seven_segment
   _set_yCoord_seven_segment

 Address spaces:
Name               Size   Autos  Total    Cost      Usage
BIGRAM             F5F      0       0      37        0.0%
EEDATA             400      0       0       0        0.0%
BITBANK14          100      0       0      33        0.0%
BANK14             100      0       0      34        0.0%
BITBANK13          100      0       0      30        0.0%
BANK13             100      0       0      31        0.0%
BITBANK12          100      0       0      28        0.0%
BANK12             100      0       0      29        0.0%
BITBANK11          100      0       0      26        0.0%
BANK11             100      0       0      27        0.0%
BITBANK10          100      0       0      24        0.0%
BANK10             100      0       0      25        0.0%
BITBANK9           100      0       0      22        0.0%
BANK9              100      0       0      23        0.0%
BITBANK8           100      0       0      20        0.0%
BANK8              100      0       0      21        0.0%
BITBANK7           100      0       0      18        0.0%
BANK7              100      0       0      19        0.0%
BITBANK6           100      0       0      16        0.0%
BANK6              100      0       0      17        0.0%
BITBANK5           100      0       0      14        0.0%
BANK5              100      0       0      15        0.0%
BITBANK4           100      0       0      12        0.0%
BANK4              100      0       0      13        0.0%
BITBANK3           100      0       0      10        0.0%
BANK3              100      0       0      11        0.0%
BITBANK2           100      0       0       8        0.0%
BANK2              100      0       0       9        0.0%
BITBANK1           100      0       0       6        0.0%
BANK1              100     10      30       7       18.8%
BITBANK0            A0      0       0       4        0.0%
BANK0               A0      0      96       5       93.8%
BITBANK15           60      0       0      35        0.0%
BANK15              60      0       0      36        0.0%
BITCOMRAM           5E      0       0       0        0.0%
COMRAM              5E     21      4F       1       84.0%
BITSFR               0      0       0     200        0.0%
SFR                  0      0       0     200        0.0%
STACK                0      0       0       2        0.0%
NULL                 0      0       0       0        0.0%
ABS                  0      0     115      32        0.0%
DATA                 0      0     115       3        0.0%
CODE                 0      0       0       0        0.0%


Microchip Technology PIC18 Macro Assembler V2.30 build 20200825195618 
Symbol Table                                                                                   Tue Jun 07 20:03:50 2022

    __size_of_set_xCoord_seven_segment 0064                         leftRotate@temp 0037  
            ?_set_xCoord_seven_segment 0027                                     l21 2B28  
                                   l30 2A14                                     l24 281A  
                                   l27 2A40                                     l38 2B16  
                          _stopRE0and3 2B5A                            CMDledTask@i 0035  
                          CMDledTask@j 0038                                    l223 28F6  
                                  l403 1DAC                                    l228 257E  
                                  l324 2B58                                    l501 2154  
                                  l341 2888                                    l350 26F2  
                                  l414 1E50                                    l407 1DFA  
                                  l335 260E                                    l327 2B48  
                                  l352 2708                                    l344 26B0  
                                  l424 2698                                    l346 26C6  
                                  l522 29E8                                    l362 2174  
                                  l338 2A92                                    l355 271E  
                                  l515 1D02                                    l348 26DC  
                                  l364 21DE                                    l349 271E  
                                  l453 0F6A                                    l614 1722  
                                  l374 21FC                                    l358 219A  
                                  l518 2AF6                                    l631 2B64  
                                  l375 221E                                    l392 1F6A  
                                  l368 21B8                                    l640 22DE  
                                  l491 12A6                                    l396 2AB6  
                                  l628 2B5E                                    l485 12A6  
                                  l583 0BBA                                    l399 1D5E  
                                  l639 2260                                    l593 1722  
                                  _CDM 12A8                                    l589 0BFA  
                                  _TSM 1AF6                                    _isr 0008  
                         ___awmod@sign 002C                                    prod 000FF3  
                                  wreg 000FE8                            ?_LCDdisplay 0027  
                     leftRotateArray@j 003B                                   CDM@i 0120  
                                 ?_CDM 0027                                   ?_TSM 0027  
                                 l3100 28E6                                   l2310 1D04  
                                 l2320 1D58                                   l2312 1D12  
                                 l3112 2506                                   l3104 24EE  
                                 l2330 1DA6                                   l2322 1D6C  
                                 l2314 1D22                                   l3114 254A  
                                 l3106 24FE                                   l3122 2A6E  
                                 l2250 2B3C                                   l2340 1DF4  
                                 l2332 1DBA                                   l2324 1D7C  
                                 l2316 1D26                                   l3116 254E  
                                 l2350 1E4E                                   l2342 1E08  
                                 l2334 1DCA                                   l2326 1D80  
                                 l2318 1D50                                   l3118 256A  
                                 l2344 1E18                                   l2336 1DCE  
                                 l2328 1D9E                                   l4200 0CC0  
                                 l5000 2AF2                                   l2248 2B52  
                                 l5010 12CE                                   l5002 12A8  
                                 l2346 1E1C                                   l2338 1DEC  
                                 l4210 0CFC                                   l4202 0CC6  
                                 l2282 281C                                   l4140 2B1A  
                                 l5100 156A                                   l5020 133C  
                                 l5012 12E4                                   l5004 12BA  
                                 l2348 1E46                                   l4300 0F60  
                                 l4220 0D44                                   l4212 0D0E  
                                 l4204 0CD8                                   l4142 2B20  
                                 l4150 2A2C                                   l5110 15BA  
                                 l5102 1570                                   l5030 1372  
                                 l5014 1322                                   l4310 0FBA  
                                 l4230 0D84                                   l4222 0D4E  
                                 l4214 0D18                                   l4206 0CE2  
                                 l4302 0F6A                                   l3094 289E  
                                 l3086 288A                                   l4152 2A32  
                                 l4144 2A18                                   l4160 29FC  
                                 l5120 15F0                                   l5104 158C  
                                 l5032 138E                                   l5016 1326  
                                 l5008 12C6                                   l4320 1010  
                                 l4312 0FCC                                   l4240 0DCE  
                                 l4232 0D98                                   l4224 0D62  
                                 l4216 0D2C                                   l4208 0CF6  
                                 l4304 0F8A                                   l3096 28C6  
                                 l3088 2896                                   l4400 27A2  
                                 l5200 2264                                   l4138 2B18  
                                 l4154 2A3C                                   l4146 2A1A  
                                 l4162 2A00                                   l5122 160C  
                                 l5106 15A2                                   l5050 140C  
                                 l5026 1346                                   l5018 1336  
                                 l5034 13A4                                   l4330 1062  
                                 l4322 101C                                   l4314 0FDE  
                                 l4306 0F9C                                   l4250 0E0A  
                                 l4242 0DD4                                   l4234 0D9E  
                                 l4226 0D68                                   l4218 0D32  
                                 l3098 28CA                                   l4170 2AFE  
                                 l4410 27DA                                   l4402 27BA  
                                 l2634 2B5A                                   l5210 22AC  
                                 l5202 226C                                   l4148 2A28  
                                 l4164 2A06                                   l4156 29EC  
                                 l5140 168C                                   l5116 15C4  
                                 l5108 15B4                                   l5124 1622  
                                 l5044 13C4                                   l5036 13B4  
                                 l5052 1422                                   l5028 136C  
                                 l4340 10B2                                   l4332 1074  
                                 l4324 1030                                   l4316 0FEA  
                                 l4308 0FAE                                   l4260 0E52  
                                 l4252 0E1C                                   l4244 0DE6  
                                 l4236 0DB0                                   l4228 0D7A  
                                 l4180 0C38                                   l4172 0BFC  
                                 l4500 2066                                   l4420 280A  
                                 l4412 27EA                                   l4404 27BE  
                                 l5220 22CE                                   l5212 22B0  
                                 l5204 2280                                   l4166 2A10  
                                 l4158 29EE                                   l4430 26BE  
                                 l5134 1644                                   l5126 1634  
                                 l5142 16A2                                   l5118 15EA  
                                 l5062 1444                                   l5054 1434  
                                 l5070 14A2                                   l5046 13EA  
                                 l5038 13BA                                   l4350 110A  
                                 l4342 10C6                                   l4334 1080  
                                 l4326 1042                                   l4318 0FFE  
                                 l4270 0E92                                   l4262 0E5C  
                                 l4254 0E26                                   l4246 0DF0  
                                 l4238 0DBA                                   l4190 0C76  
                                 l4182 0C42                                   l4174 0C0E  
                                 l4510 209A                                   l4502 2078  
                                 l4422 2810                                   l4414 27EE  
                                 l4406 27C2                                   l5214 22B4  
                                 l5222 22D6                                   l5206 2288  
                                 l4600 019A                                   l4432 26D4  
                                 l5152 16C4                                   l5144 16B4  
                                 l5136 166A                                   l5128 163A  
                                 l5080 14C4                                   l5072 14B4  
                                 l5064 146A                                   l5056 143A  
                                 l5048 13F0                                   l4360 115C  
                                 l4352 1116                                   l4344 10D8  
                                 l4336 1094                                   l4328 104E  
                                 l4280 0EDC                                   l4272 0EA6  
                                 l4264 0E70                                   l4256 0E3A  
                                 l4248 0E04                                   l4192 0C8A  
                                 l4184 0C54                                   l4176 0C20  
                                 l4520 20AA                                   l4512 209E  
                                 l4504 2088                                   l4440 2610  
                                 l4168 2AF8                                   l4424 2816  
                                 l4416 27F2                                   l4408 27D2  
                                 l5216 22B8                                   l5208 229A  
                                 l4610 020A                                   l4602 01A8  
                                 l4434 26EA                                   l4426 269A  
                                 l5154 16EA                                   l5146 16BA  
                                 l5138 1670                                   l5090 1534  
                                 l5082 14EA                                   l5074 14BA  
                                 l5066 1470                                   l4370 11AC  
                                 l4362 116E                                   l4354 112A  
                                 l4346 10E4                                   l4338 10A6  
                                 l4290 0F18                                   l4282 0EE2  
                                 l4274 0EAC                                   l4266 0E76  
                                 l4258 0E40                                   l4194 0C90  
                                 l4186 0C5A                                   l4178 0C26  
                                 l4530 20E4                                   l4522 20B0  
                                 l4514 20A2                                   l4506 2094  
                                 l4442 2620                                   l4450 2654  
                                 l4418 2806                                   l5218 22CA  
                                 l4700 065E                                   l4620 0280  
                                 l4612 021E                                   l4604 01BC  
                                 l4436 2700                                   l4428 26A8  
                                 l5156 16F0                                   l5092 153A  
                                 l5084 14F0                                   l5068 148C  
                                 l4380 1204                                   l4372 11C0  
                                 l4364 117A                                   l4356 113C  
                                 l4348 10F8                                   l4292 0F2A  
                                 l4284 0EF4                                   l4276 0EBE  
                                 l4268 0E88                                   l4196 0CA2  
                                 l4188 0C6C                                   l4540 2130  
                                 l4524 20B2                                   l4508 2096  
                                 l4532 20EC                                   l4452 2664  
                                 l4460 2694                                   l4444 262C  
                                 l4710 06D6                                   l4702 0672  
                                 l4630 02F2                                   l4622 0292  
                                 l4614 0230                                   l4606 01CE  
                                 l4438 2716                                   l5158 170C  
                                 l5086 150C                                   l4390 1256  
                                 l4382 1210                                   l4374 11D2  
                                 l4366 118E                                   l4358 1148  
                                 l4294 0F34                                   l4286 0EFE  
                                 l4278 0EC8                                   l4198 0CAC  
                                 l4542 2140                                   l4534 20FE  
                                 l4526 20C4                                   l4470 1E88  
                                 l4462 1E52                                   l4454 2670  
                                 l4446 263E                                   l5190 2230  
                                 l4800 0B4A                                   l4720 0768  
                                 l4712 0704                                   l4704 06A0  
                                 l4640 0384                                   l4632 0320  
                                 l4624 02C0                                   l4616 025E  
                                 l4608 01FC                                   l4544 29B2  
                                 l5088 1522                                   l4392 1268  
                                 l4384 1224                                   l4376 11DE  
                                 l4368 11A0                                   l4296 0F48  
                                 l4288 0F12                                   l4536 210E  
                                 l4528 20C8                                   l4480 1ED0  
                                 l4472 1E9A                                   l4464 1E62  
                                 l4456 2684                                   l4448 264A  
                                 l5192 2232                                   l5184 2220  
                                 l4802 0B58                                   l4730 07D8  
                                 l4722 0776                                   l4714 0712  
                                 l4706 06AE                                   l4650 03F6  
                                 l4642 0392                                   l4634 032E  
                                 l4626 02CE                                   l4618 026C  
                                 l4810 0BBA                                   l4570 0022  
                                 l4546 29C2                                   l4554 29E0  
                                 l5098 1544                                   l4394 1274  
                                 l4386 1236                                   l4378 11F2  
                                 l4298 0F4E                                   l4538 211E  
                                 l4490 1F0C                                   l4482 1EDC  
                                 l4474 1EA2                                   l4466 1E74  
                                 l4458 2690                                   l5194 2244  
                                 l5186 2228                                   l4812 0BC0  
                                 l4804 0B6A                                   l4740 0850  
                                 l4732 07EC                                   l4724 0788  
                                 l4716 0726                                   l4708 06C2  
                                 l4660 046C                                   l4652 040A  
                                 l4644 03A6                                   l4636 0342  
                                 l4628 02E0                                   l4580 0098  
                                 l4572 0036                                   l4564 001A  
                                 l4548 29D0                                   l4820 2B60  
                                 l4396 1288                                   l4388 1242  
                                 l4492 1F20                                   l4476 1EB2  
                                 l4468 1E84                                   l4484 1EE6  
                                 l4900 1B36                                   l5196 2254  
                                 l5188 222C                                   l4814 0BDA  
                                 l4806 0B7E                                   l4750 08C8  
                                 l4742 0864                                   l4734 0800  
                                 l4726 079C                                   l4718 073A  
                                 l4670 04E4                                   l4662 0480  
                                 l4654 041E                                   l4646 03BA  
                                 l4638 0356                                   l4590 010C  
                                 l4582 00AA                                   l4574 0048  
                                 l4558 0012                                   l4398 129A  
                                 l4494 1F4E                                   l4486 1EF6  
                                 l4478 1EC4                                   l4910 1B54  
                                 l4902 1B3C                                   l4822 2580  
                                 l5198 225C                                   l4816 0BDA  
                                 l4808 0BAC                                   l4760 0958  
                                 l4752 08F6                                   l4744 0892  
                                 l4736 082E                                   l4728 07CA  
                                 l4680 0576                                   l4672 0512  
                                 l4664 04AE                                   l4656 044C  
                                 l4648 03E8                                   l4592 013A  
                                 l4584 00D8                                   l4576 0076  
                                 l4496 1F62                                   l4488 1EFA  
                                 l4912 1B5A                                   l4904 1B42  
                                 l4840 25DE                                   l4818 0BDE  
                                 l4770 09CA                                   l4762 0966  
                                 l4754 0904                                   l4746 08A0  
                                 l4738 083C                                   l4690 05E8  
                                 l4682 0584                                   l4674 0520  
                                 l4666 04BC                                   l4658 045A  
                                 l4594 0148                                   l4586 00E6  
                                 l4578 0084                                   l4498 1F66  
                                 l4930 1B8C                                   l4914 1B60  
                                 l4906 1B48                                   l4850 260A  
                                 l4842 25E0                                   l4834 25A8  
                                 l4780 0A40                                   l4772 09DE  
                                 l4764 097A                                   l4756 0916  
                                 l4748 08B4                                   l4692 05FA  
                                 l4684 0598                                   l4676 0534  
                                 l4668 04D0                                   l4596 015A  
                                 l4588 00FA                                   l4860 21A8  
                                 l4852 2156                                   l4940 1BB8  
                                 l4932 1B90                                   l4924 1B72  
                                 l4916 1B66                                   l4908 1B4E  
                                 l4844 25F0                                   l4836 25CC  
                                 l4828 25A4                                   l4790 0AB8  
                                 l4782 0A54                                   l4774 09F2  
                                 l4766 098E                                   l4758 092A  
                                 l4694 060E                                   l4686 05AC  
                                 l4678 0548                                   l4598 016C  
                                 l4870 221A                                   l4862 21C6  
                                 l4854 2164                                   l4950 1C02  
                                 l4942 1BBE                                   l4934 1BAC  
                                 l4926 1B78                                   l4918 1B6A  
                                 l4846 25F4                                   l4838 25CE  
                                 l4792 0AE6                                   l4784 0A82  
                                 l4776 0A20                                   l4768 09BC  
                                 l4696 063C                                   l4688 05DA  
                                 l4872 2A94                                   l4864 21D6  
                                 l4856 2182                                   l4952 1C1E  
                                 l4944 1BC0                                   l4928 1B7A  
                                 l4880 1AFA                                   l4848 2604  
                                 _ADIF 007CF6                                   l4794 0AF4  
                                 l4786 0A90                                   l4778 0A2E  
                                 l4698 064A                                   l4874 2AA2  
                                 l4866 21EC                                   l4858 2192  
                                 l4970 1C84                                   l4954 1C2E  
                                 l4946 1BE6                                   l4890 1B18  
                                 l4882 1B00                                   l4796 0B08  
                                 l4788 0AA4                                   l4876 2AB2  
                                 l4868 220A                                   l4972 1C9C  
                                 l4964 1C56                                   l4956 1C36  
                                 l4948 1BFE                                   l4892 1B1E  
                                 l4884 1B06                                   ?_isr 0027  
                                 l4798 0B1C                                   l4990 1CE6  
                                 l4982 1CC8                                   l4974 1CA0  
                                 l4966 1C5C                                   l4958 1C42  
                                 l4894 1B24                                   l4886 1B0C  
                                 l4878 1AF6                                   l4984 1CCE  
                                 l4976 1CBC                                   l4968 1C5E  
                                 l4896 1B2A                                   l4888 1B12  
                                 l4992 2AD8                                   l4986 1CD0  
                                 l4898 1B30                                   l4994 2AE6  
                                 l4988 1CE2                                   l4996 2AEA  
                                 l4998 2AEE                                   TSM@i 003F  
                                 _LATA 000F89                                   _LATB 000F8A  
                                 _LATC 000F8B                                   u2400 1D7C  
                                 _LATD 000F8C                                   u2401 1D78  
                                 _LATE 000F8D                                   u2410 1D9E  
                                 _LATF 000F8E                                   u2411 1D9A  
                                 _LATG 000F8F                                   u2420 1DBA  
                                 _LATH 000F90                                   u2421 1DB6  
                                 u2430 1DCA                                   _LATJ 000F91  
                                 u2431 1DC6                                   u2440 1DEC  
                                 u2360 1D12                                   u2441 1DE8  
                                 u2361 1D0E                                   u2450 1E08  
                                 u2370 1D22                                   u3250 28E6  
                                 u2451 1E04                                   u2371 1D1E  
                                 u3251 28E2                                   u2460 1E18  
                                 u2380 1D50                                   u3260 256A  
                                 u2461 1E14                                   u2381 1D4C  
                                 u3261 2566                                   u2470 1E46  
                                 u2390 1D6C                                   u2471 1E42  
                                 u2391 1D68                                   u6000 11F2  
                                 u6001 11EE                                   u6010 1224  
                                 u6011 1220                                   u6020 1256  
                                 u6100 2620                                   u6021 1252  
                                 u6101 261C                                   u6030 1288  
                                 u6110 263E                                   u6031 1284  
                                 u6111 263A                                   u7000 06D6  
                                 u6040 26A8                                   u6200 1F0C  
                                 u6120 2664                                   u7001 06D2  
                                 u6041 26A4                                   u6201 1F08  
                                 u6121 2660                                   u6050 26BE  
                                 u6210 1F4E                                   u6130 2684  
                                 u6051 26BA                                   u6211 1F4A  
                                 u6131 2680                                   u6060 26D4  
                                 u6300 29D0                                   u6220 2078  
                                 u6140 1E62                                   u6061 26D0  
                                 u6301 29CC                                   u6221 2074  
                                 u6141 1E5E                                   u7110 07EC  
                                 u7030 0726                                   u7014 06F8  
                                 u6310 0036                                   u6070 26EA  
                                 u6230 2088                                   u6150 1E74  
                                 u7111 07E8                                   u7031 0722  
                                 u7015 06F4                                   u6311 0032  
                                 u6071 26E6                                   u6231 2084  
                                 u6151 1E70                                   u7200 08C8  
                                 u7120 0800                                   u7040 073A  
                                 u6400 010C                                   u6320 0048  
                                 u6080 2700                                   u6240 20E4  
                                 u6160 1E84                                   u8000 2280  
                                 u7201 08C4                                   u7121 07FC  
                                 u7105 07D2                                   u7041 0736  
                                 u7025 070C                                   u6401 0108  
                                 u6321 0044                                   u6081 26FC  
                                 u6241 20E0                                   u6161 1E80  
                                 u8001 227C                                   u7106 07D4  
                                 u7026 070E                                   u6090 2716  
                                 u6250 20FE                                   u6170 1E9A  
                                 u8010 229A                                   u6091 2712  
                                 u6251 20FA                                   u6171 1E96  
                                 u8011 2296                                   u6260 210E  
                                 u6180 1EC4                                   u8020 22AC  
                                 i2l21 2B3A                                   u6261 210A  
                                 u6181 1EC0                                   u8021 22A8  
                                 u7310 09DE                                   u7230 0916  
                                 u7214 08EA                                   u7150 0850  
                                 u7134 0822                                   u7070 0788  
                                 u7054 075C                                   u6510 021E  
                                 u6430 015A                                   u6414 012E  
                                 u6350 0098                                   u6334 006A  
                                 u5710 0C0E                                   u6270 2130  
                                 u6190 1EF6                                   u8030 22CA  
                                 u7311 09DA                                   u7231 0912  
                                 u7215 08E6                                   u7151 084C  
                                 u7135 081E                                   u7071 0784  
                                 u7055 0758                                   u6511 021A  
                                 u6431 0156                                   u6415 012A  
                                 u6351 0094                                   u6335 0066  
                                 u5711 0C0A                                   u6271 212C  
                                 u6191 1EF2                                   u8031 22C6  
                                 u7400 0AB8                                   u7320 09F2  
                                 u7240 092A                                   u7160 0864  
                                 u7080 079C                                   u6600 02F2  
                                 u6520 0230                                   u6440 016C  
                                 u6360 00AA                                   u5800 0DCE  
                                 u5720 0C20                                   u6280 2140  
                                 u7401 0AB4                                   u7321 09EE  
                                 u7305 09C4                                   u7241 0926  
                                 u7225 08FE                                   u7161 0860  
                                 u7145 0836                                   u7081 0798  
                                 u7065 0770                                   u6601 02EE  
                                 u6521 022C                                   u6505 0204  
                                 u6441 0168                                   u6425 0142  
                                 u6361 00A6                                   u6345 007E  
                                 u5801 0DCA                                   u5721 0C1C  
                                 u6281 213C                                   u7306 09C6  
                                 u7226 0900                                   u7146 0838  
                                 u7066 0772                                   u6506 0206  
                                 u6426 0144                                   u6346 0080  
                                 u6290 29C2                                   u5810 0E04  
                                 u5730 0C54                                   i2l27 2A6C  
                                 u8107 2B24                                   u6291 29BE  
                                 u5811 0E00                                   u5731 0C50  
                                 u5900 0FFE                                   u5820 0E3A  
                                 u5740 0C8A                                   u5901 0FFA  
                                 u5821 0E36                                   u5741 0C86  
                                 u7510 0BDA                                   u7430 0B08  
                                 u7414 0ADA                                   u7350 0A40  
                                 u7334 0A14                                   u7270 097A  
                                 u7254 094C                                   u7190 08B4  
                                 u7174 0886                                   u7094 07BE  
                                 u6710 040A                                   u6630 0342  
                                 u6614 0314                                   u6550 0280  
                                 u6534 0252                                   u6470 01BC  
                                 u6454 018E                                   u6390 00FA  
                                 u6374 00CC                                   u5910 1030  
                                 u5830 0E70                                   u5750 0CC0  
                                 u7511 0BD6                                   u7431 0B04  
                                 u7415 0AD6                                   u7351 0A3C  
                                 u7335 0A10                                   u7271 0976  
                                 u7255 0948                                   u7191 08B0  
                                 u7175 0882                                   u7095 07BA  
                                 u6711 0406                                   u6631 033E  
                                 u6615 0310                                   u6551 027C  
                                 u6535 024E                                   u6471 01B8  
                                 u6455 018A                                   u6391 00F6  
                                 u6375 00C8                                   u5911 102C  
                                 u5831 0E6C                                   u5751 0CBC  
                                 u8047 27AC                                   u7520 0BFA  
                                 u7440 0B1C                                   u7360 0A54  
                                 u7280 098E                                   u6800 04E4  
                                 u6720 041E                                   u6640 0356  
                                 u6560 0292                                   u6480 01CE  
                                 u5920 1062                                   u5840 0EA6  
                                 u5760 0CF6                                   u7600 21A8  
                                 u7521 0BF6                                   u7505 0BB4  
                                 u7441 0B18                                   u7425 0AEE  
                                 u7361 0A50                                   u7345 0A28  
                                 u7281 098A                                   u7265 0960  
                                 u7185 089A                                   u6801 04E0  
                                 u6721 041A                                   u6705 03F0  
                                 u6641 0352                                   u6625 0328  
                                 u6561 028E                                   u6545 0266  
                                 u6481 01CA                                   u6465 01A2  
                                 u6385 00E0                                   u5921 105E  
                                 u5841 0EA2                                   u5761 0CF2  
                                 u7601 21A4                                   u8057 27C8  
                                 u7506 0BB6                                   u7426 0AF0  
                                 u7346 0A2A                                   u7266 0962  
                                 u7186 089C                                   u6706 03F2  
                                 u6626 032A                                   u6546 0268  
                                 u6466 01A4                                   u6386 00E2  
                                 u5930 1094                                   u5850 0EDC  
                                 u5770 0D2C                                   u7610 21B8  
                                 u7530 25DE                                   u5931 1090  
                                 u5851 0ED8                                   u5771 0D28  
                                 u7611 21B4                                   u8067 27E0  
                                 u7531 25DA                                   u5940 10C6  
                                 u5860 0F12                                   u5780 0D62  
                                 u7620 21C6                                   u7700 1BAC  
                                 u7540 25F0                                   u5941 10C2  
                                 u5861 0F0E                                   u5781 0D5E  
                                 u7621 21C2                                   u7701 1BA8  
                                 u8077 27F8                                   u7541 25EC  
                                 u7470 0B6A                                   u7454 0B3E  
                                 u7390 0AA4                                   u7374 0A76  
                                 u7294 09B0                                   u6910 05FA  
                                 u6830 0534                                   u6814 0506  
                                 u6750 046C                                   u6734 0440  
                                 u6670 03A6                                   u6654 0378  
                                 u6590 02E0                                   u6574 02B4  
                                 u6494 01F0                                   u5950 10F8  
                                 u5870 0F48                                   u5790 0D98  
                                 u7630 21D6                                   u7710 1BE6  
                                 u7550 2604                                   u7471 0B66  
                                 u7455 0B3A                                   u7391 0AA0  
                                 u7375 0A72                                   u7295 09AC  
                                 u6911 05F6                                   u6831 0530  
                                 u6815 0502                                   u6751 0468  
                                 u6735 043C                                   u6671 03A2  
                                 u6655 0374                                   u6591 02DC  
                                 u6575 02B0                                   u6495 01EC  
                                 u5951 10F4                                   u5871 0F44  
                                 u5791 0D94                                   u7631 21D2  
                                 u7711 1BE2                                   u8087 2B08  
                                 u7551 2600                                   u7480 0B7E  
                                 u6920 060E                                   u6840 0548  
                                 u6760 0480                                   u6680 03BA  
                                 u7800 1336                                   u5960 112A  
                                 u5880 0F9C                                   u7640 21EC  
                                 u7560 2164                                   u7720 1C1E  
                                 u7481 0B7A                                   u7465 0B52  
                                 u7385 0A8A                                   u6921 060A  
                                 u6905 05E2                                   u6841 0544  
                                 u6825 051A                                   u6761 047C  
                                 u6745 0454                                   u6681 03B6  
                                 u6665 038C                                   u6585 02C8  
                                 u8097 2B1C                                   u7801 1332  
                                 u5961 1126                                   u5881 0F98  
                                 u7641 21E8                                   u7561 2160  
                                 u7721 1C1A                                   u7466 0B54  
                                 u7386 0A8C                                   u6906 05E4  
                                 u6826 051C                                   u6746 0456  
                                 u6666 038E                                   u6586 02CA  
                                 u7810 138E                                   u5970 115C  
                                 u5890 0FCC                                   u7650 21FC  
                                 u7570 2174                                   u7730 1C2E  
                                 u7811 138A                                   u5971 1158  
                                 u5891 0FC8                                   u7651 21F8  
                                 u7571 2170                                   u7731 1C2A  
                                 u7900 15B4                                   u7820 13B4  
                                 u5980 118E                                   u7660 220A  
                                 u7580 2182                                   u7740 1C84  
                                 u7901 15B0                                   u7821 13B0  
                                 u5981 118A                                   u7661 2206  
                                 u7581 217E                                   u7741 1C80  
                                 u7494 0BA0                                   u6950 065E  
                                 u6934 0630                                   u6870 0598  
                                 u6854 056A                                   u6790 04D0  
                                 u6774 04A2                                   u6694 03DC  
                                 u7910 160C                                   u7830 140C  
                                 u5990 11C0                                   u7670 221A  
                                 u7590 2192                                   u7750 1CBC  
                                 u7495 0B9C                                   u6951 065A  
                                 u6935 062C                                   u6871 0594  
                                 u6855 0566                                   u6791 04CC  
                                 u6775 049E                                   u6695 03D8  
                                 u7911 1608                                   u7831 1408  
                                 u5991 11BC                                   u7671 2216  
                                 u7591 218E                                   u7751 1CB8  
                                 u6960 0672                                   u6880 05AC  
                                 u7920 1634                                   u7840 1434  
                                 u7680 2AA2                                   u7760 1D02  
                                 u6961 066E                                   u6945 0644  
                                 u6881 05A8                                   u6865 057E  
                                 u6785 04B6                                   u7921 1630  
                                 u7841 1430                                   u7681 2A9E  
                                 u7761 1CFE                                   u6946 0646  
                                 u6866 0580                                   u6786 04B8  
                                 u7930 168C                                   u7850 148C  
                                 u7770 12BA                                   u7690 2AB2  
                                 u7931 1688                                   u7851 1488  
                                 u7771 12B6                                   u7691 2AAE  
                                 u7940 16B4                                   u7860 14B4  
                                 u7780 12E4                                   u7941 16B0  
                                 u7861 14B0                                   u7781 12E0  
                                 u6990 06C2                                   u6974 0694  
                                 u6894 05CE                                   u7950 170C  
                                 u7870 150C                                   u6991 06BE  
                                 u6975 0690                                   u6895 05CA  
                                 u7951 1708                                   u7871 1508  
                                 u7880 1534                                   u6985 06A8  
                                 u7881 1530                                   u6986 06AA  
                                 u7890 158C                                   u7794 12F8  
                                 u7891 1588                                   u7795 12F4  
                                 u7980 2244                                   u7981 2240  
                                 u7990 2254                                   u7991 2250  
                                 _TMR0 000FD6                                   _main 2220  
                                 _init 2580                                   _mode 000B  
 __end_of_set_custom_num_seven_segment 239A  __size_of_set_custom_num_seven_segment 00B4  
         _set_custom_num_seven_segment 22E6                                   fsr1h 000FE2  
                                 fsr2h 000FDA                                   indf1 000FE7  
                                 indf2 000FDF                                   fsr1l 000FE1  
                                 fsr2l 000FD9                                   btemp 0050  
             __end_of_predefinedChange 269A                        __end_ofi2_Pulse 2B3C  
                                 prodh 000FF4                                   prodl 000FF3  
                                 start 000E                       __end_of_ADCtoLCD 1AF6  
                      __end_of_LcdData 2A16                          _TEMpressCheck 2156  
             _set_yCoord_seven_segment 244A                        ??_CDMpressCheck 0037  
                         ___param_bank 000000                 __size_of_init_CDM_mode 0020  
                      __end_of_InitLCD 281C                                  ??_CDM 003A  
             __size_of_leftRotateArray 0092                                  ??_TSM 003D  
                                ??_isr 0031                                  ?_main 0027  
                                ?_init 0027                        __end_of___awmod 244A  
                                _T0CON 000FD5                                  _LATB2 007C52  
                                _LATB5 007C55                                  i2l321 1AF4  
                                i2l305 1A1C                                  i2l241 2062  
                                i2l314 1A82                                  i2l250 295A  
                                i2l263 24EC                                  i2l277 2398  
                                i2l895 2448                     leftRotate@lcdChars 0033  
                                _PORTA 000F80                                  _PORTB 000F81  
                                _PORTC 000F82                                  _PORTD 000F83  
                                _PORTE 000F84                                  _PORTF 000F85  
                                _PORTG 000F86                                  _PORTH 000F87  
                                _PORTJ 000F88                                  _TRISA 000F92  
                                _TRISB 000F93                                  _TRISC 000F94  
                                _TRISD 000F95                                  _TRISE 000F96  
                                _TRISF 000F97                                  _TRISG 000F98  
                                _TRISH 000F99                                  _TRISJ 000F9A  
                                _Pulse 2B18                    __size_of_CMDledTask 0BEA  
                     __end_ofi2_LcdCmd 2A6E                                  _check 0001  
                                _digit 0013                                  init@i 003A  
                                init@j 003B                                  tablat 000FF5  
                                ttemp5 0051                                  ttemp6 0054  
                                ttemp7 0058                                  status 000FD8  
                                wtemp8 0051                            leftRotate@j 0038  
                     __end_of_LcdClear 2B18                         ?_TEMpressCheck 0027  
                       _preLetterCount 000F          ?_set_custom_num_seven_segment 0027  
                 __size_of_re4_pressed 0038                        __initialization 2720  
                  __size_of_LCDdisplay 06AC                           __end_of_main 22E6  
                         __end_of_init 2610                                 ??_main 0048  
                               ??_init 0038                          __activetblptr 000003  
                        _init_CDM_mode 2AD8                                 ?_Pulse 0027  
                               _ADCON0 000FC2                                 _ADCON1 000FC1  
                               _ADCON2 000FC0                                 _ADRESH 000FC4  
                               _ADRESL 000FC3                        _ms500WaitedFlag 001C  
                            ??i2_Pulse 0027                                 _GODONE 007E11  
                               i2l2210 2910                                 i2l2212 2918  
                               i2l2204 28F8                                 i2l2206 2900  
                               i2l2230 246A                                 i2l2222 244A  
                               i2l4000 23F0                                 i2l2208 2908  
                               i2l2216 2920                                 i2l2232 2472  
                               i2l2224 2452                                 i2l4002 23FE  
                               i2l4010 2428                                 i2l2234 247A  
                               i2l2226 245A                                 i2l2242 2492  
                               i2l4012 2438                                 i2l4004 2414  
                               i2l2180 22F6                                 i2l2236 2482  
                               i2l2228 2462                                 i2l3054 2B2A  
                               i2l4014 2440                                 i2l4006 241C  
                               i2l2190 231E                                 i2l2182 22FE  
                               i2l2238 248A                                 i2l3056 2B2C  
                               i2l4008 2422                                 i2l2192 2326  
                               i2l2184 2306                                 i2l2176 22E6  
                               i2l3058 2B32                                 i2l2194 232E  
                               i2l2186 230E                                 i2l2178 22EE  
                               i2l4050 1F92                                 i2l4042 1F6E  
                               i2l2188 2316                                 i2l4060 1FD6  
                               i2l4052 1F9E                                 i2l4044 1F72  
                               i2l2198 2336                                 i2l4070 201E  
                               i2l4062 1FE8                                 i2l4054 1FB2  
                               i2l4046 1F74                                 i2l3520 2A44  
                               i2l3600 195E                                 i2l4072 2026  
                               i2l4064 1FF4                                 i2l4056 1FB6  
                               i2l4048 1F7C                                 i2l3530 2A68  
                               i2l3522 2A46                                 i2l3610 19AC  
                               i2l3602 1966                                 i2l4058 1FC4  
                               i2l4066 1FF6                                 i2l3524 2A54  
                               i2l3620 19FE                                 i2l3612 19C2  
                               i2l3604 1978                                 i2l3540 176E  
                               i2l3532 1724                                 i2l4068 2016  
                               i2l4076 202E                                 i2l3526 2A58  
                               i2l3630 1A52                                 i2l3622 1A14  
                               i2l3614 19CA                                 i2l3606 198E  
                               i2l3550 17C0                                 i2l3542 1776  
                               i2l3534 173A                                 i2l5310 234A  
                               i2l3528 2A5E                                 i2l3640 1AC2  
                               i2l3632 1A56                                 i2l3616 19E0  
                               i2l3608 1996                                 i2l3560 1806  
                               i2l3552 17D0                                 i2l3544 178C  
                               i2l3624 1A1C                                 i2l3536 1742  
                               i2l5304 2044                                 i2l3642 1AC6  
                               i2l3626 1A40                                 i2l3634 1A8C  
                               i2l3618 19F6                                 i2l3570 1866  
                               i2l3562 181C                                 i2l3554 17D8  
                               i2l3546 17A2                                 i2l3538 1758  
                               i2l5306 24A6                                 i2l3636 1AB0  
                               i2l3628 1A4C                                 i2l3580 18B0  
                               i2l3572 186E                                 i2l3564 1832  
                               i2l3556 17E8                                 i2l3548 17AA  
                               i2l5308 2934                                 i2l3638 1ABC  
                               i2l3590 1902                                 i2l3582 18C6  
                               i2l3574 1884                                 i2l3566 183A  
                               i2l3558 17FE                                 i2l3592 1918  
                               i2l3584 18CE                                 i2l3576 1896  
                               i2l3568 1850                                 i2l3594 192E  
                               i2l3586 18E4                                 i2l3578 189E  
                               i2l3596 1936                                 i2l3588 18FA  
                               i2l3598 194C                                 i2l3990 23B8  
                               i2l3982 239A                                 i2l3992 23C6  
                               i2l3984 239E                                 i2l3994 23CE  
                               i2l3986 23AC                                 i2l3996 23E0  
                               i2l3988 23B4                                 i2l3998 23E8  
                            ??_LcdData 0033                              ??_InitLCD 0036  
                               _LcdCmd 2A16                          ADCtoLCD@i_725 002F  
                      _currentLedIndex 0011                              ADCtoLCD@i 002D  
                        ?_customChange 0027                            modeChange@i 0035  
                               _adcVal 0017                              ??___awmod 002B  
                               _xCoord 001F                                 _yCoord 001E  
                     __end_of_init_irq 2B5A                                 clear_0 2786  
                               clear_1 2792                        ___awmod@divisor 0029  
                      ___awmod@counter 002B                      ??_leftRotateArray 0035  
                         __pdataCOMRAM 0048                         ?_init_CDM_mode 0027  
                               tblptrh 000FF7                                 tblptrl 000FF6  
                               tblptru 000FF8                              ?_ADCtoLCD 0028  
                           __accesstop 0060                __end_of__initialization 2798  
                      ??_TEMpressCheck 0038                          ___rparam_used 000001  
                         ??_CMDledTask 0033                         ??_customChange 0034  
                  leftRotateArray@temp 0039                         __pcstackCOMRAM 0027  
                        __end_of_Pulse 2B2A                           __pidataBANK0 295C  
                         __pidataBANK1 2AB8                              ?i2_LcdCmd 0027  
       ??_set_custom_num_seven_segment 0027                           ?_stopRE0and3 0027  
                   _interruptCountTMR0 0019                           ??_LCDdisplay 0034  
                            ?_LcdClear 0027                                ??_Pulse 0033  
                           ??_ADCtoLCD 002A                     __end_of_CMDledTask 0BFC  
           ??_set_yCoord_seven_segment 0027                             __pbssBANK0 00B6  
                              ?_LcdCmd 0027                      ?_predefinedChange 0027  
                   ??_predefinedChange 0034                     __end_of_LCDdisplay 12A8  
                           ??i2_LcdCmd 0027                __size_of_CDMcoordHelper 014E  
                   __size_of_tmr0_init 000E                        _customCharCount 000D  
                              TSM@temp 0047                        ??_init_CDM_mode 0038  
                           ??_LcdClear 0034                                i2_Pulse 2B2A  
                      _customArrayInfo 0086                     __size_of_stopInput 0026  
                              _LcdData 29EA                              ?_init_irq 0027  
                              _InitLCD 27A2                             _leftRotate 288A  
                      __size_of_LcdCmd 002C                                __Hparam 0000  
             _set_xCoord_seven_segment 28F8                         ADCtoLCD@adcVal 0028  
                              __Lparam 0000                             _dummyCount 0003  
                              ___awmod 239A                  __end_of_CDMpressCheck 2AB8  
                           _modeChange 2066                         _ms30WaitedFlag 001B  
                              __pcinit 2720                                _charmap 00B6  
                           _init_ports 281C                                __ramtop 1000  
                              __ptext0 2220                                __ptext1 2B3C  
                              __ptext2 2B5A                                __ptext3 281C  
                              __ptext4 2B52                                __ptext5 2AD8  
                              __ptext6 2580                                __ptext7 27A2  
                              __ptext8 2AF8                                __ptext9 1AF6  
                         __size_of_CDM 047C                           __size_of_TSM 020E  
                         __size_of_isr 205E                       ___awmod@dividend 0027  
                 __end_of_customChange 1F6C                             _input_task 269A  
                       __pintcode_body 1F6C                   end_of_initialization 2798  
                    __end_of_tmr0_init 2B4A                              LcdCmd@cmd 0033  
                              int_func 1F6C                             ??_init_irq 0033  
                        ??_re4_pressed 0035                        _leftRotateArray 24EE  
                              postdec1 000FE5                                postdec2 000FDD  
                              postinc0 000FEE                                postinc1 000FE6  
                              postinc2 000FDE                      __end_of_stopInput 2A94  
                            _PORTAbits 000F80                              _PORTBbits 000F81  
                            _PORTCbits 000F82                              _PORTDbits 000F83  
                            _PORTEbits 000F84                   __size_of_stopRE0and3 0006  
                       _inp_re0_btn_st 0026                         _inp_re1_btn_st 0025  
                          _adcReadFlag 0015       __end_of_set_yCoord_seven_segment 24EE  
                       _inp_re2_btn_st 0024                         _inp_re3_btn_st 0023  
                       _inp_re4_btn_st 0022                      __size_of_ADCtoLCD 03D2  
                       _inp_re5_btn_st 0021                            ?_leftRotate 0033  
                       __end_of_LcdCmd 2A42                          ?_startRE0and3 0027  
                  __end_of_re4_pressed 29EA                         _CDMcoordHelper 1D04  
                          ?_modeChange 0027                    CMDledTask@bitStatus 0037  
                        __pidataCOMRAM 2B4A                            ?_init_ports 0027  
                    __size_ofi2_LcdCmd 002C                    start_initialization 2720  
                          __end_of_CDM 1724                            __end_of_TSM 1D04  
                          __end_of_isr 2066                            ?_input_task 0027  
                    __size_of_LcdClear 0020                __end_of_leftRotateArray 2580  
                             CDM@i_810 0122                               CDM@i_811 0124  
                             CDM@i_812 0126                               CDM@i_813 0128  
                             CDM@i_814 012A                               CDM@i_815 012C  
                             CDM@i_816 012E                               ??_LcdCmd 0033  
                __end_of_TEMpressCheck 2220                         ??_startRE0and3 0033  
               __end_of_CDMcoordHelper 1E52                _SSEGMENT_NUMBERS_GLYPHS 0110  
                       modeChange@temp 0034                            __pdataBANK0 0060  
                          __pdataBANK1 0100                  __size_of_customChange 011A  
            __size_of_predefinedChange 008A                    __size_of_leftRotate 006E  
                          __pbssCOMRAM 0001                          __pcstackBANK1 0120  
                             ?i2_Pulse 0027             ??_set_xCoord_seven_segment 0027  
                  __size_of_modeChange 00F0                               ?_LcdData 0027  
                  __size_of_init_ports 006E                               ?_InitLCD 0027  
                          _re4_pressed 29B2                      __size_of_init_irq 0008  
                      ?_CDMcoordHelper 0027                           _customChange 1E52  
                            __pintcode 0008                               ?___awmod 0027  
    __size_of_set_yCoord_seven_segment 00A4              ?_set_yCoord_seven_segment 0027  
                  __size_of_input_task 0086                            _isAtTheEdge 0005  
                             TSM@i_764 0043                               TSM@i_765 0045  
                             TSM@i_766 0041                       _customCharInsert 0007  
                __end_of_init_CDM_mode 2AF8                              _fullHeart 0048  
                       __size_of_Pulse 0012                               _ADCtoLCD 1724  
                            _customNum 0020                       ?_leftRotateArray 0033  
                            _tmr0_init 2B3C                              _tempChars 0100  
                             i2u500_40 198E                               i2u500_41 198A  
                             i2u501_40 19AC                               i2u501_41 19A8  
                             i2u502_40 19C2                               i2u502_41 19BE  
                             i2u503_40 19E0                               i2u503_41 19DC  
                             i2u504_40 19F6                               i2u504_41 19F2  
                             i2u505_40 1A14                               i2u505_41 1A10  
                             i2u506_40 1A40                               i2u506_41 1A3C  
                             i2u507_40 1A82                               i2u507_41 1A7E  
                             i2u508_40 1AB0                               i2u508_41 1AAC  
                             i2u509_40 1AF0                               i2u509_41 1AEC  
                             i2u480_40 17A2                               i2u480_41 179E  
                             i2u481_40 17C0                               i2u553_40 23AC  
                             i2u561_40 1F92                               i2u481_41 17BC  
                             i2u553_41 23A8                               i2u561_41 1F8E  
                             i2u490_40 1896                               i2u482_40 17D0  
                             i2u554_40 23C6                               i2u562_40 1FB2  
                             i2u490_41 1892                               i2u482_41 17CC  
                             i2u554_41 23C2                               i2u562_41 1FAE  
                             i2u491_40 18B0                               i2u483_40 17E8  
                             i2u555_40 23E0                               i2u563_40 1FC4  
                             i2u491_41 18AC                               i2u483_41 17E4  
                             i2u555_41 23DC                               i2u563_41 1FC0  
                             i2u811_47 2B2E                               i2u492_40 18C6  
                             i2u484_40 17FE                               i2u476_40 173A  
                             i2u556_40 23FE                               i2u564_40 1FD6  
                             i2u492_41 18C2                               i2u484_41 17FA  
                             i2u476_41 1736                               i2u556_41 23FA  
                             i2u564_41 1FD2                               i2u812_47 2B36  
                             i2u493_40 18E4                               i2u485_40 181C  
                             i2u477_40 1758                               i2u557_40 2414  
                             i2u493_41 18E0                               i2u485_41 1818  
                             i2u477_41 1754                               i2u557_41 2410  
                             i2u494_40 18FA                               i2u486_40 1832  
                             i2u478_40 176E                               i2u558_40 2438  
                             i2u494_41 18F6                               i2u486_41 182E  
                             i2u478_41 176A                               i2u558_41 2434  
                             i2u495_40 1918                               i2u487_40 1850  
                             i2u479_40 178C                               i2u495_41 1914  
                             i2u487_41 184C                               i2u479_41 1788  
                             i2u496_40 192E                               i2u488_40 1866  
                             i2u496_41 192A                               i2u488_41 1862  
                             i2u497_40 194C                               i2u489_40 1884  
                             i2u497_41 1948                               i2u489_41 1880  
                             i2u498_40 195E                               i2u498_41 195A  
                             i2u499_40 1978                               i2u499_41 1974  
                             i2_LcdCmd 2A42                              _stopInput 2A6E  
                 __end_of_startRE0and3 2B66                               _LcdClear 2AF8  
                            copy_data0 2734                              copy_data1 2754  
                            copy_data2 2774                 __size_of_CDMpressCheck 0024  
                     __size_ofi2_Pulse 0012                       __size_of_LcdData 002C  
                         ??_leftRotate 0035         leftRotateArray@customArrayInfo 0033  
                           ?_tmr0_init 0027                       __size_of_InitLCD 007A  
                             __Hrparam 0000                               __Lrparam 0000  
                          LcdData@data 0033                           ??_modeChange 0034  
                        ??_stopRE0and3 0033                       __size_of___awmod 00B0  
                         ??_init_ports 0033                       _predefinedChange 2610  
                           ?_stopInput 0027                     __end_of_leftRotate 28F8  
                             _lcdChars 00A6                           ??_input_task 0033  
                             __ptext10 2A6E                               __ptext11 24EE  
                             __ptext20 12A8                               __ptext12 288A  
                             __ptext21 2B60                               __ptext13 2156  
                             __ptext30 28F8                               __ptext22 29B2  
                             __ptext14 2610                               __ptext31 22E6  
                             __ptext23 269A                               __ptext15 1E52  
                             __ptext32 239A                               __ptext24 29EA  
                             __ptext16 2A94                               __ptext33 1724  
                             __ptext25 2A16                               __ptext17 2066  
                             __ptext34 2A42                               __ptext26 2B18  
                             __ptext18 0BFC                               __ptext35 2B2A  
                             __ptext27 0012                               __ptext19 1D04  
                             __ptext29 244A                               _ledIndex 001D  
     __end_of_set_xCoord_seven_segment 295C                     __end_of_modeChange 2156  
                          i2LcdCmd@cmd 0027                          __size_of_main 00C6  
                             _init_irq 2B52                          __size_of_init 0090  
                   __end_of_init_ports 288A                             _CMDledTask 0012  
                             int$flags 0050                          _CDMpressCheck 2A94  
                   __end_of_input_task 2720                          _isFirstArrive 0009  
                           _INTCONbits 000FF2                    __end_of_stopRE0and3 2B60  
                           _LCDdisplay 0BFC                               intlevel2 0000  
                     ??_CDMcoordHelper 0033                           ?_re4_pressed 0033  
                          ??_tmr0_init 0033                             _PREDEFINED 0060  
                       ?_CDMpressCheck 0027                  __size_of_startRE0and3 0006  
                          ??_stopInput 0033                 __size_of_TEMpressCheck 00CA  
                          ?_CMDledTask 0027                           _startRE0and3 2B60  
